
target/osdev.bin:     file format elf32-i386


Disassembly of section .text:

c0100000 <kernel_virt_start>:
c0100000:	02 b0 ad 1b 03 00    	add    0x31bad(%eax),%dh
c0100006:	00 00                	add    %al,(%eax)
c0100008:	fb                   	sti
c0100009:	4f                   	dec    %edi
c010000a:	52                   	push   %edx
c010000b:	e4 00                	in     $0x0,%al
	...

c0100020 <stack_bottom>:
	...

c0110020 <pmm_parse_memory_map>:
c0110020:	55                   	push   %ebp
c0110021:	57                   	push   %edi
c0110022:	56                   	push   %esi
c0110023:	53                   	push   %ebx
c0110024:	e8 d7 1f 00 00       	call   c0112000 <__x86.get_pc_thunk.bx>
c0110029:	81 c3 d7 3f 00 00    	add    $0x3fd7,%ebx
c011002f:	83 ec 28             	sub    $0x28,%esp
c0110032:	8b 74 24 40          	mov    0x40(%esp),%esi
c0110036:	8d 83 14 e0 ff ff    	lea    -0x1fec(%ebx),%eax
c011003c:	50                   	push   %eax
c011003d:	e8 7e 0f 00 00       	call   c0110fc0 <v_puts>
c0110042:	b8 ab aa aa aa       	mov    $0xaaaaaaab,%eax
c0110047:	f7 e6                	mul    %esi
c0110049:	c1 ea 04             	shr    $0x4,%edx
c011004c:	89 54 24 14          	mov    %edx,0x14(%esp)
c0110050:	83 c4 10             	add    $0x10,%esp
c0110053:	83 fe 17             	cmp    $0x17,%esi
c0110056:	0f 86 a4 00 00 00    	jbe    c0110100 <pmm_parse_memory_map+0xe0>
c011005c:	8b 44 24 30          	mov    0x30(%esp),%eax
c0110060:	31 ff                	xor    %edi,%edi
c0110062:	8d ab 37 e0 ff ff    	lea    -0x1fc9(%ebx),%ebp
c0110068:	8d 70 04             	lea    0x4(%eax),%esi
c011006b:	8d 83 41 e0 ff ff    	lea    -0x1fbf(%ebx),%eax
c0110071:	89 44 24 08          	mov    %eax,0x8(%esp)
c0110075:	8d 83 2a e0 ff ff    	lea    -0x1fd6(%ebx),%eax
c011007b:	89 44 24 0c          	mov    %eax,0xc(%esp)
c011007f:	eb 56                	jmp    c01100d7 <pmm_parse_memory_map+0xb7>
c0110081:	8d b4 26 00 00 00 00 	lea    0x0(%esi,%eiz,1),%esi
c0110088:	83 ec 04             	sub    $0x4,%esp
c011008b:	ff 76 04             	push   0x4(%esi)
c011008e:	ff 36                	push   (%esi)
c0110090:	55                   	push   %ebp
c0110091:	e8 7a 10 00 00       	call   c0111110 <v_printf>
c0110096:	83 c4 0c             	add    $0xc,%esp
c0110099:	ff 76 0c             	push   0xc(%esi)
c011009c:	ff 76 08             	push   0x8(%esi)
c011009f:	ff 74 24 14          	push   0x14(%esp)
c01100a3:	e8 68 10 00 00       	call   c0111110 <v_printf>
c01100a8:	8b 83 50 11 00 00    	mov    0x1150(%ebx),%eax
c01100ae:	03 46 08             	add    0x8(%esi),%eax
c01100b1:	8b 93 54 11 00 00    	mov    0x1154(%ebx),%edx
c01100b7:	13 56 0c             	adc    0xc(%esi),%edx
c01100ba:	83 c7 01             	add    $0x1,%edi
c01100bd:	83 c4 10             	add    $0x10,%esp
c01100c0:	8b 4c 24 04          	mov    0x4(%esp),%ecx
c01100c4:	89 83 50 11 00 00    	mov    %eax,0x1150(%ebx)
c01100ca:	83 c6 18             	add    $0x18,%esi
c01100cd:	89 93 54 11 00 00    	mov    %edx,0x1154(%ebx)
c01100d3:	39 cf                	cmp    %ecx,%edi
c01100d5:	73 35                	jae    c011010c <pmm_parse_memory_map+0xec>
c01100d7:	83 7e 10 01          	cmpl   $0x1,0x10(%esi)
c01100db:	75 ab                	jne    c0110088 <pmm_parse_memory_map+0x68>
c01100dd:	83 ec 0c             	sub    $0xc,%esp
c01100e0:	ff 74 24 18          	push   0x18(%esp)
c01100e4:	e8 d7 0e 00 00       	call   c0110fc0 <v_puts>
c01100e9:	8b 46 08             	mov    0x8(%esi),%eax
c01100ec:	8b 56 0c             	mov    0xc(%esi),%edx
c01100ef:	01 83 48 11 00 00    	add    %eax,0x1148(%ebx)
c01100f5:	11 93 4c 11 00 00    	adc    %edx,0x114c(%ebx)
c01100fb:	83 c4 10             	add    $0x10,%esp
c01100fe:	eb 88                	jmp    c0110088 <pmm_parse_memory_map+0x68>
c0110100:	8b 83 50 11 00 00    	mov    0x1150(%ebx),%eax
c0110106:	8b 93 54 11 00 00    	mov    0x1154(%ebx),%edx
c011010c:	83 ec 04             	sub    $0x4,%esp
c011010f:	0f ac d0 0a          	shrd   $0xa,%edx,%eax
c0110113:	8d b3 6b e0 ff ff    	lea    -0x1f95(%ebx),%esi
c0110119:	c1 ea 0a             	shr    $0xa,%edx
c011011c:	52                   	push   %edx
c011011d:	50                   	push   %eax
c011011e:	8d 83 4d e0 ff ff    	lea    -0x1fb3(%ebx),%eax
c0110124:	50                   	push   %eax
c0110125:	e8 e6 0f 00 00       	call   c0111110 <v_printf>
c011012a:	8b 93 54 11 00 00    	mov    0x1154(%ebx),%edx
c0110130:	8b 83 50 11 00 00    	mov    0x1150(%ebx),%eax
c0110136:	83 c4 0c             	add    $0xc,%esp
c0110139:	0f ac d0 14          	shrd   $0x14,%edx,%eax
c011013d:	c1 ea 14             	shr    $0x14,%edx
c0110140:	52                   	push   %edx
c0110141:	50                   	push   %eax
c0110142:	56                   	push   %esi
c0110143:	e8 c8 0f 00 00       	call   c0111110 <v_printf>
c0110148:	8b 93 4c 11 00 00    	mov    0x114c(%ebx),%edx
c011014e:	8b 83 48 11 00 00    	mov    0x1148(%ebx),%eax
c0110154:	83 c4 0c             	add    $0xc,%esp
c0110157:	0f ac d0 0a          	shrd   $0xa,%edx,%eax
c011015b:	c1 ea 0a             	shr    $0xa,%edx
c011015e:	52                   	push   %edx
c011015f:	50                   	push   %eax
c0110160:	8d 83 74 e0 ff ff    	lea    -0x1f8c(%ebx),%eax
c0110166:	50                   	push   %eax
c0110167:	e8 a4 0f 00 00       	call   c0111110 <v_printf>
c011016c:	8b 93 4c 11 00 00    	mov    0x114c(%ebx),%edx
c0110172:	8b 83 48 11 00 00    	mov    0x1148(%ebx),%eax
c0110178:	83 c4 0c             	add    $0xc,%esp
c011017b:	0f ac d0 14          	shrd   $0x14,%edx,%eax
c011017f:	c1 ea 14             	shr    $0x14,%edx
c0110182:	52                   	push   %edx
c0110183:	50                   	push   %eax
c0110184:	56                   	push   %esi
c0110185:	e8 86 0f 00 00       	call   c0111110 <v_printf>
c011018a:	83 c4 2c             	add    $0x2c,%esp
c011018d:	5b                   	pop    %ebx
c011018e:	5e                   	pop    %esi
c011018f:	5f                   	pop    %edi
c0110190:	5d                   	pop    %ebp
c0110191:	c3                   	ret

c0110192 <_start>:
c0110192:	fa                   	cli
c0110193:	0f 01 15 db 01 11 c0 	lgdtl  0xc01101db
c011019a:	66 31 c0             	xor    %ax,%ax
c011019d:	8e d8                	mov    %eax,%ds
c011019f:	ea a6 01 11 c0 08 00 	ljmp   $0x8,$0xc01101a6

c01101a6 <fix_cs>:
c01101a6:	66 b8 10 00          	mov    $0x10,%ax
c01101aa:	8e d8                	mov    %eax,%ds
c01101ac:	8e c0                	mov    %eax,%es
c01101ae:	8e e0                	mov    %eax,%fs
c01101b0:	8e e8                	mov    %eax,%gs
c01101b2:	8e d0                	mov    %eax,%ss
c01101b4:	bc 20 00 11 c0       	mov    $0xc0110020,%esp
c01101b9:	53                   	push   %ebx
c01101ba:	50                   	push   %eax
c01101bb:	e8 30 0b 00 00       	call   c0110cf0 <kentry>

c01101c0 <hlt_loop>:
c01101c0:	f4                   	hlt
c01101c1:	eb fd                	jmp    c01101c0 <hlt_loop>

c01101c3 <gdt_start>:
	...

c01101cb <gdt_code>:
c01101cb:	ff                   	(bad)
c01101cc:	ff 00                	incl   (%eax)
c01101ce:	00 00                	add    %al,(%eax)
c01101d0:	9a cf 00     	lcall  $0x0,$0xffff00cf

c01101d3 <gdt_data>:
c01101d3:	ff                   	(bad)
c01101d4:	ff 00                	incl   (%eax)
c01101d6:	00 00                	add    %al,(%eax)
c01101d8:	92                   	xchg   %eax,%edx
c01101d9:	cf                   	iret
	...

c01101db <gdt_descriptor>:
c01101db:	17                   	pop    %ss
c01101dc:	00 c3                	add    %al,%bl
c01101de:	01 11                	add    %edx,(%ecx)
c01101e0:	c0 66 90 66          	shlb   $0x66,-0x70(%esi)
c01101e4:	90                   	nop
c01101e5:	66 90                	xchg   %ax,%ax
c01101e7:	66 90                	xchg   %ax,%ax
c01101e9:	66 90                	xchg   %ax,%ax
c01101eb:	66 90                	xchg   %ax,%ax
c01101ed:	66 90                	xchg   %ax,%ax
c01101ef:	90                   	nop

c01101f0 <s_init>:
c01101f0:	53                   	push   %ebx
c01101f1:	e8 0a 1e 00 00       	call   c0112000 <__x86.get_pc_thunk.bx>
c01101f6:	81 c3 0a 3e 00 00    	add    $0x3e0a,%ebx
c01101fc:	83 ec 10             	sub    $0x10,%esp
c01101ff:	6a 00                	push   $0x0
c0110201:	68 f9 03 00 00       	push   $0x3f9
c0110206:	e8 45 13 00 00       	call   c0111550 <outb>
c011020b:	58                   	pop    %eax
c011020c:	5a                   	pop    %edx
c011020d:	68 80 00 00 00       	push   $0x80
c0110212:	68 fb 03 00 00       	push   $0x3fb
c0110217:	e8 34 13 00 00       	call   c0111550 <outb>
c011021c:	59                   	pop    %ecx
c011021d:	58                   	pop    %eax
c011021e:	6a 0c                	push   $0xc
c0110220:	68 f8 03 00 00       	push   $0x3f8
c0110225:	e8 26 13 00 00       	call   c0111550 <outb>
c011022a:	58                   	pop    %eax
c011022b:	5a                   	pop    %edx
c011022c:	6a 00                	push   $0x0
c011022e:	68 f9 03 00 00       	push   $0x3f9
c0110233:	e8 18 13 00 00       	call   c0111550 <outb>
c0110238:	59                   	pop    %ecx
c0110239:	58                   	pop    %eax
c011023a:	6a 03                	push   $0x3
c011023c:	68 fb 03 00 00       	push   $0x3fb
c0110241:	e8 0a 13 00 00       	call   c0111550 <outb>
c0110246:	58                   	pop    %eax
c0110247:	5a                   	pop    %edx
c0110248:	68 c7 00 00 00       	push   $0xc7
c011024d:	68 fa 03 00 00       	push   $0x3fa
c0110252:	e8 f9 12 00 00       	call   c0111550 <outb>
c0110257:	59                   	pop    %ecx
c0110258:	58                   	pop    %eax
c0110259:	6a 0b                	push   $0xb
c011025b:	68 fc 03 00 00       	push   $0x3fc
c0110260:	e8 eb 12 00 00       	call   c0111550 <outb>
c0110265:	58                   	pop    %eax
c0110266:	5a                   	pop    %edx
c0110267:	68 ae 00 00 00       	push   $0xae
c011026c:	68 f8 03 00 00       	push   $0x3f8
c0110271:	e8 da 12 00 00       	call   c0111550 <outb>
c0110276:	c7 04 24 f8 03 00 00 	movl   $0x3f8,(%esp)
c011027d:	e8 be 12 00 00       	call   c0111540 <inb>
c0110282:	83 c4 10             	add    $0x10,%esp
c0110285:	3c ae                	cmp    $0xae,%al
c0110287:	74 07                	je     c0110290 <s_init+0xa0>
c0110289:	83 c4 08             	add    $0x8,%esp
c011028c:	5b                   	pop    %ebx
c011028d:	c3                   	ret
c011028e:	66 90                	xchg   %ax,%ax
c0110290:	83 ec 08             	sub    $0x8,%esp
c0110293:	6a 0f                	push   $0xf
c0110295:	68 fc 03 00 00       	push   $0x3fc
c011029a:	e8 b1 12 00 00       	call   c0111550 <outb>
c011029f:	83 c4 10             	add    $0x10,%esp
c01102a2:	83 c4 08             	add    $0x8,%esp
c01102a5:	5b                   	pop    %ebx
c01102a6:	c3                   	ret
c01102a7:	8d b4 26 00 00 00 00 	lea    0x0(%esi,%eiz,1),%esi
c01102ae:	66 90                	xchg   %ax,%ax

c01102b0 <s_printf>:
c01102b0:	55                   	push   %ebp
c01102b1:	57                   	push   %edi
c01102b2:	56                   	push   %esi
c01102b3:	53                   	push   %ebx
c01102b4:	e8 47 1d 00 00       	call   c0112000 <__x86.get_pc_thunk.bx>
c01102b9:	81 c3 47 3d 00 00    	add    $0x3d47,%ebx
c01102bf:	83 ec 3c             	sub    $0x3c,%esp
c01102c2:	8b 6c 24 50          	mov    0x50(%esp),%ebp
c01102c6:	8d 44 24 54          	lea    0x54(%esp),%eax
c01102ca:	89 44 24 0c          	mov    %eax,0xc(%esp)
c01102ce:	0f be 45 00          	movsbl 0x0(%ebp),%eax
c01102d2:	84 c0                	test   %al,%al
c01102d4:	74 4a                	je     c0110320 <.L18+0xc>
c01102d6:	31 f6                	xor    %esi,%esi
c01102d8:	8d b4 26 00 00 00 00 	lea    0x0(%esi,%eiz,1),%esi
c01102df:	90                   	nop
c01102e0:	3c 25                	cmp    $0x25,%al
c01102e2:	75 24                	jne    c0110308 <s_printf+0x58>
c01102e4:	83 c6 01             	add    $0x1,%esi
c01102e7:	0f b6 44 35 00       	movzbl 0x0(%ebp,%esi,1),%eax
c01102ec:	83 e8 62             	sub    $0x62,%eax
c01102ef:	3c 16                	cmp    $0x16,%al
c01102f1:	77 21                	ja     c0110314 <.L18>
c01102f3:	0f b6 c0             	movzbl %al,%eax
c01102f6:	8b 8c 83 68 ea ff ff 	mov    -0x1598(%ebx,%eax,4),%ecx
c01102fd:	01 d9                	add    %ebx,%ecx
c01102ff:	ff e1                	jmp    *%ecx
c0110301:	8d b4 26 00 00 00 00 	lea    0x0(%esi,%eiz,1),%esi
c0110308:	83 ec 0c             	sub    $0xc,%esp
c011030b:	50                   	push   %eax
c011030c:	e8 ff 0b 00 00       	call   c0110f10 <v_putc>
c0110311:	83 c4 10             	add    $0x10,%esp

c0110314 <.L18>:
c0110314:	83 c6 01             	add    $0x1,%esi
c0110317:	0f be 44 35 00       	movsbl 0x0(%ebp,%esi,1),%eax
c011031c:	84 c0                	test   %al,%al
c011031e:	75 c0                	jne    c01102e0 <s_printf+0x30>
c0110320:	83 c4 3c             	add    $0x3c,%esp
c0110323:	5b                   	pop    %ebx
c0110324:	5e                   	pop    %esi
c0110325:	5f                   	pop    %edi
c0110326:	5d                   	pop    %ebp
c0110327:	c3                   	ret

c0110328 <.L10>:
c0110328:	8b 4c 24 0c          	mov    0xc(%esp),%ecx
c011032c:	83 ec 04             	sub    $0x4,%esp
c011032f:	89 c8                	mov    %ecx,%eax
c0110331:	83 c1 04             	add    $0x4,%ecx
c0110334:	89 4c 24 10          	mov    %ecx,0x10(%esp)
c0110338:	6a 10                	push   $0x10
c011033a:	8d 54 24 18          	lea    0x18(%esp),%edx
c011033e:	52                   	push   %edx
c011033f:	ff 30                	push   (%eax)
c0110341:	e8 4a 11 00 00       	call   c0111490 <utoa>
c0110346:	0f b6 44 24 20       	movzbl 0x20(%esp),%eax
c011034b:	88 44 24 1b          	mov    %al,0x1b(%esp)
c011034f:	83 c4 10             	add    $0x10,%esp
c0110352:	8d 7c 24 11          	lea    0x11(%esp),%edi
c0110356:	84 c0                	test   %al,%al
c0110358:	74 ba                	je     c0110314 <.L18>
c011035a:	8d b6 00 00 00 00    	lea    0x0(%esi),%esi
c0110360:	83 ec 0c             	sub    $0xc,%esp
c0110363:	68 fd 03 00 00       	push   $0x3fd
c0110368:	e8 d3 11 00 00       	call   c0111540 <inb>
c011036d:	83 c4 10             	add    $0x10,%esp
c0110370:	a8 20                	test   $0x20,%al
c0110372:	74 ec                	je     c0110360 <.L10+0x38>
c0110374:	83 ec 08             	sub    $0x8,%esp
c0110377:	83 c7 01             	add    $0x1,%edi
c011037a:	0f b6 44 24 13       	movzbl 0x13(%esp),%eax
c011037f:	50                   	push   %eax
c0110380:	68 f8 03 00 00       	push   $0x3f8
c0110385:	e8 c6 11 00 00       	call   c0111550 <outb>
c011038a:	0f b6 47 ff          	movzbl -0x1(%edi),%eax
c011038e:	88 44 24 1b          	mov    %al,0x1b(%esp)
c0110392:	83 c4 10             	add    $0x10,%esp
c0110395:	84 c0                	test   %al,%al
c0110397:	75 c7                	jne    c0110360 <.L10+0x38>
c0110399:	83 c6 01             	add    $0x1,%esi
c011039c:	0f be 44 35 00       	movsbl 0x0(%ebp,%esi,1),%eax
c01103a1:	84 c0                	test   %al,%al
c01103a3:	0f 85 37 ff ff ff    	jne    c01102e0 <s_printf+0x30>
c01103a9:	e9 72 ff ff ff       	jmp    c0110320 <.L18+0xc>
c01103ae:	66 90                	xchg   %ax,%ax

c01103b0 <.L12>:
c01103b0:	8b 44 24 0c          	mov    0xc(%esp),%eax
c01103b4:	8b 38                	mov    (%eax),%edi
c01103b6:	8d 48 04             	lea    0x4(%eax),%ecx
c01103b9:	89 4c 24 0c          	mov    %ecx,0xc(%esp)
c01103bd:	0f b6 07             	movzbl (%edi),%eax
c01103c0:	88 44 24 0b          	mov    %al,0xb(%esp)
c01103c4:	84 c0                	test   %al,%al
c01103c6:	0f 84 48 ff ff ff    	je     c0110314 <.L18>
c01103cc:	83 c7 01             	add    $0x1,%edi
c01103cf:	90                   	nop
c01103d0:	83 ec 0c             	sub    $0xc,%esp
c01103d3:	68 fd 03 00 00       	push   $0x3fd
c01103d8:	e8 63 11 00 00       	call   c0111540 <inb>
c01103dd:	83 c4 10             	add    $0x10,%esp
c01103e0:	a8 20                	test   $0x20,%al
c01103e2:	74 ec                	je     c01103d0 <.L12+0x20>
c01103e4:	83 ec 08             	sub    $0x8,%esp
c01103e7:	83 c7 01             	add    $0x1,%edi
c01103ea:	0f b6 44 24 13       	movzbl 0x13(%esp),%eax
c01103ef:	50                   	push   %eax
c01103f0:	68 f8 03 00 00       	push   $0x3f8
c01103f5:	e8 56 11 00 00       	call   c0111550 <outb>
c01103fa:	0f b6 47 ff          	movzbl -0x1(%edi),%eax
c01103fe:	88 44 24 1b          	mov    %al,0x1b(%esp)
c0110402:	83 c4 10             	add    $0x10,%esp
c0110405:	84 c0                	test   %al,%al
c0110407:	75 c7                	jne    c01103d0 <.L12+0x20>
c0110409:	83 c6 01             	add    $0x1,%esi
c011040c:	0f be 44 35 00       	movsbl 0x0(%ebp,%esi,1),%eax
c0110411:	84 c0                	test   %al,%al
c0110413:	0f 85 c7 fe ff ff    	jne    c01102e0 <s_printf+0x30>
c0110419:	e9 02 ff ff ff       	jmp    c0110320 <.L18+0xc>
c011041e:	66 90                	xchg   %ax,%ax

c0110420 <.L13>:
c0110420:	8b 54 24 0c          	mov    0xc(%esp),%edx
c0110424:	83 ec 04             	sub    $0x4,%esp
c0110427:	8d bb 93 e0 ff ff    	lea    -0x1f6d(%ebx),%edi
c011042d:	89 d0                	mov    %edx,%eax
c011042f:	83 c2 04             	add    $0x4,%edx
c0110432:	89 54 24 10          	mov    %edx,0x10(%esp)
c0110436:	6a 10                	push   $0x10
c0110438:	8d 54 24 18          	lea    0x18(%esp),%edx
c011043c:	52                   	push   %edx
c011043d:	ff 30                	push   (%eax)
c011043f:	e8 4c 10 00 00       	call   c0111490 <utoa>
c0110444:	83 c4 10             	add    $0x10,%esp
c0110447:	c6 44 24 0b 4f       	movb   $0x4f,0xb(%esp)
c011044c:	8d 74 26 00          	lea    0x0(%esi,%eiz,1),%esi
c0110450:	83 ec 0c             	sub    $0xc,%esp
c0110453:	68 fd 03 00 00       	push   $0x3fd
c0110458:	e8 e3 10 00 00       	call   c0111540 <inb>
c011045d:	83 c4 10             	add    $0x10,%esp
c0110460:	a8 20                	test   $0x20,%al
c0110462:	74 ec                	je     c0110450 <.L13+0x30>
c0110464:	83 ec 08             	sub    $0x8,%esp
c0110467:	83 c7 01             	add    $0x1,%edi
c011046a:	0f b6 44 24 13       	movzbl 0x13(%esp),%eax
c011046f:	50                   	push   %eax
c0110470:	68 f8 03 00 00       	push   $0x3f8
c0110475:	e8 d6 10 00 00       	call   c0111550 <outb>
c011047a:	0f b6 47 ff          	movzbl -0x1(%edi),%eax
c011047e:	88 44 24 1b          	mov    %al,0x1b(%esp)
c0110482:	83 c4 10             	add    $0x10,%esp
c0110485:	84 c0                	test   %al,%al
c0110487:	75 c7                	jne    c0110450 <.L13+0x30>
c0110489:	0f b6 44 24 10       	movzbl 0x10(%esp),%eax
c011048e:	8d 7c 24 11          	lea    0x11(%esp),%edi
c0110492:	88 44 24 0b          	mov    %al,0xb(%esp)
c0110496:	84 c0                	test   %al,%al
c0110498:	0f 84 76 fe ff ff    	je     c0110314 <.L18>
c011049e:	66 90                	xchg   %ax,%ax
c01104a0:	83 ec 0c             	sub    $0xc,%esp
c01104a3:	68 fd 03 00 00       	push   $0x3fd
c01104a8:	e8 93 10 00 00       	call   c0111540 <inb>
c01104ad:	83 c4 10             	add    $0x10,%esp
c01104b0:	a8 20                	test   $0x20,%al
c01104b2:	74 ec                	je     c01104a0 <.L13+0x80>
c01104b4:	83 ec 08             	sub    $0x8,%esp
c01104b7:	83 c7 01             	add    $0x1,%edi
c01104ba:	0f b6 44 24 13       	movzbl 0x13(%esp),%eax
c01104bf:	50                   	push   %eax
c01104c0:	68 f8 03 00 00       	push   $0x3f8
c01104c5:	e8 86 10 00 00       	call   c0111550 <outb>
c01104ca:	0f b6 47 ff          	movzbl -0x1(%edi),%eax
c01104ce:	88 44 24 1b          	mov    %al,0x1b(%esp)
c01104d2:	83 c4 10             	add    $0x10,%esp
c01104d5:	84 c0                	test   %al,%al
c01104d7:	75 c7                	jne    c01104a0 <.L13+0x80>
c01104d9:	83 c6 01             	add    $0x1,%esi
c01104dc:	0f be 44 35 00       	movsbl 0x0(%ebp,%esi,1),%eax
c01104e1:	84 c0                	test   %al,%al
c01104e3:	0f 85 f7 fd ff ff    	jne    c01102e0 <s_printf+0x30>
c01104e9:	e9 32 fe ff ff       	jmp    c0110320 <.L18+0xc>
c01104ee:	66 90                	xchg   %ax,%ax

c01104f0 <.L14>:
c01104f0:	8b 4c 24 0c          	mov    0xc(%esp),%ecx
c01104f4:	83 ec 04             	sub    $0x4,%esp
c01104f7:	89 c8                	mov    %ecx,%eax
c01104f9:	83 c1 04             	add    $0x4,%ecx
c01104fc:	89 4c 24 10          	mov    %ecx,0x10(%esp)
c0110500:	6a 0a                	push   $0xa
c0110502:	8d 54 24 18          	lea    0x18(%esp),%edx
c0110506:	52                   	push   %edx
c0110507:	ff 30                	push   (%eax)
c0110509:	e8 82 0f 00 00       	call   c0111490 <utoa>
c011050e:	0f b6 44 24 20       	movzbl 0x20(%esp),%eax
c0110513:	88 44 24 1b          	mov    %al,0x1b(%esp)
c0110517:	83 c4 10             	add    $0x10,%esp
c011051a:	8d 7c 24 11          	lea    0x11(%esp),%edi
c011051e:	84 c0                	test   %al,%al
c0110520:	0f 84 ee fd ff ff    	je     c0110314 <.L18>
c0110526:	8d b4 26 00 00 00 00 	lea    0x0(%esi,%eiz,1),%esi
c011052d:	8d 76 00             	lea    0x0(%esi),%esi
c0110530:	83 ec 0c             	sub    $0xc,%esp
c0110533:	68 fd 03 00 00       	push   $0x3fd
c0110538:	e8 03 10 00 00       	call   c0111540 <inb>
c011053d:	83 c4 10             	add    $0x10,%esp
c0110540:	a8 20                	test   $0x20,%al
c0110542:	74 ec                	je     c0110530 <.L14+0x40>
c0110544:	83 ec 08             	sub    $0x8,%esp
c0110547:	83 c7 01             	add    $0x1,%edi
c011054a:	0f b6 44 24 13       	movzbl 0x13(%esp),%eax
c011054f:	50                   	push   %eax
c0110550:	68 f8 03 00 00       	push   $0x3f8
c0110555:	e8 f6 0f 00 00       	call   c0111550 <outb>
c011055a:	0f b6 47 ff          	movzbl -0x1(%edi),%eax
c011055e:	88 44 24 1b          	mov    %al,0x1b(%esp)
c0110562:	83 c4 10             	add    $0x10,%esp
c0110565:	84 c0                	test   %al,%al
c0110567:	75 c7                	jne    c0110530 <.L14+0x40>
c0110569:	83 c6 01             	add    $0x1,%esi
c011056c:	0f be 44 35 00       	movsbl 0x0(%ebp,%esi,1),%eax
c0110571:	84 c0                	test   %al,%al
c0110573:	0f 85 67 fd ff ff    	jne    c01102e0 <s_printf+0x30>
c0110579:	e9 a2 fd ff ff       	jmp    c0110320 <.L18+0xc>
c011057e:	66 90                	xchg   %ax,%ax

c0110580 <.L15>:
c0110580:	8b 54 24 0c          	mov    0xc(%esp),%edx
c0110584:	89 d0                	mov    %edx,%eax
c0110586:	83 c2 04             	add    $0x4,%edx
c0110589:	89 54 24 0c          	mov    %edx,0xc(%esp)
c011058d:	8b 38                	mov    (%eax),%edi
c011058f:	90                   	nop
c0110590:	83 ec 0c             	sub    $0xc,%esp
c0110593:	68 fd 03 00 00       	push   $0x3fd
c0110598:	e8 a3 0f 00 00       	call   c0111540 <inb>
c011059d:	83 c4 10             	add    $0x10,%esp
c01105a0:	a8 20                	test   $0x20,%al
c01105a2:	74 ec                	je     c0110590 <.L15+0x10>
c01105a4:	89 f8                	mov    %edi,%eax
c01105a6:	83 ec 08             	sub    $0x8,%esp
c01105a9:	83 c6 01             	add    $0x1,%esi
c01105ac:	0f b6 f8             	movzbl %al,%edi
c01105af:	57                   	push   %edi
c01105b0:	68 f8 03 00 00       	push   $0x3f8
c01105b5:	e8 96 0f 00 00       	call   c0111550 <outb>
c01105ba:	0f be 44 35 00       	movsbl 0x0(%ebp,%esi,1),%eax
c01105bf:	83 c4 10             	add    $0x10,%esp
c01105c2:	84 c0                	test   %al,%al
c01105c4:	0f 85 16 fd ff ff    	jne    c01102e0 <s_printf+0x30>
c01105ca:	e9 51 fd ff ff       	jmp    c0110320 <.L18+0xc>

c01105cf <.L16>:
c01105cf:	8b 54 24 0c          	mov    0xc(%esp),%edx
c01105d3:	83 ec 04             	sub    $0x4,%esp
c01105d6:	89 d0                	mov    %edx,%eax
c01105d8:	83 c2 04             	add    $0x4,%edx
c01105db:	89 54 24 10          	mov    %edx,0x10(%esp)
c01105df:	6a 02                	push   $0x2
c01105e1:	8d 54 24 18          	lea    0x18(%esp),%edx
c01105e5:	52                   	push   %edx
c01105e6:	ff 30                	push   (%eax)
c01105e8:	e8 a3 0e 00 00       	call   c0111490 <utoa>
c01105ed:	0f b6 44 24 20       	movzbl 0x20(%esp),%eax
c01105f2:	88 44 24 1b          	mov    %al,0x1b(%esp)
c01105f6:	83 c4 10             	add    $0x10,%esp
c01105f9:	8d 7c 24 11          	lea    0x11(%esp),%edi
c01105fd:	84 c0                	test   %al,%al
c01105ff:	0f 84 0f fd ff ff    	je     c0110314 <.L18>
c0110605:	8d 76 00             	lea    0x0(%esi),%esi
c0110608:	83 ec 0c             	sub    $0xc,%esp
c011060b:	68 fd 03 00 00       	push   $0x3fd
c0110610:	e8 2b 0f 00 00       	call   c0111540 <inb>
c0110615:	83 c4 10             	add    $0x10,%esp
c0110618:	a8 20                	test   $0x20,%al
c011061a:	74 ec                	je     c0110608 <.L16+0x39>
c011061c:	83 ec 08             	sub    $0x8,%esp
c011061f:	83 c7 01             	add    $0x1,%edi
c0110622:	0f b6 44 24 13       	movzbl 0x13(%esp),%eax
c0110627:	50                   	push   %eax
c0110628:	68 f8 03 00 00       	push   $0x3f8
c011062d:	e8 1e 0f 00 00       	call   c0111550 <outb>
c0110632:	0f b6 47 ff          	movzbl -0x1(%edi),%eax
c0110636:	88 44 24 1b          	mov    %al,0x1b(%esp)
c011063a:	83 c4 10             	add    $0x10,%esp
c011063d:	84 c0                	test   %al,%al
c011063f:	75 c7                	jne    c0110608 <.L16+0x39>
c0110641:	83 c6 01             	add    $0x1,%esi
c0110644:	0f be 44 35 00       	movsbl 0x0(%ebp,%esi,1),%eax
c0110649:	84 c0                	test   %al,%al
c011064b:	0f 85 8f fc ff ff    	jne    c01102e0 <s_printf+0x30>
c0110651:	e9 ca fc ff ff       	jmp    c0110320 <.L18+0xc>
c0110656:	8d b4 26 00 00 00 00 	lea    0x0(%esi,%eiz,1),%esi
c011065d:	8d 76 00             	lea    0x0(%esi),%esi

c0110660 <s_puts>:
c0110660:	57                   	push   %edi
c0110661:	56                   	push   %esi
c0110662:	53                   	push   %ebx
c0110663:	8b 7c 24 10          	mov    0x10(%esp),%edi
c0110667:	e8 94 19 00 00       	call   c0112000 <__x86.get_pc_thunk.bx>
c011066c:	81 c3 94 39 00 00    	add    $0x3994,%ebx
c0110672:	0f b6 37             	movzbl (%edi),%esi
c0110675:	89 f0                	mov    %esi,%eax
c0110677:	84 c0                	test   %al,%al
c0110679:	74 3c                	je     c01106b7 <s_puts+0x57>
c011067b:	83 c7 01             	add    $0x1,%edi
c011067e:	66 90                	xchg   %ax,%ax
c0110680:	83 ec 0c             	sub    $0xc,%esp
c0110683:	68 fd 03 00 00       	push   $0x3fd
c0110688:	e8 b3 0e 00 00       	call   c0111540 <inb>
c011068d:	83 c4 10             	add    $0x10,%esp
c0110690:	a8 20                	test   $0x20,%al
c0110692:	74 ec                	je     c0110680 <s_puts+0x20>
c0110694:	89 f0                	mov    %esi,%eax
c0110696:	83 ec 08             	sub    $0x8,%esp
c0110699:	83 c7 01             	add    $0x1,%edi
c011069c:	0f b6 f0             	movzbl %al,%esi
c011069f:	56                   	push   %esi
c01106a0:	68 f8 03 00 00       	push   $0x3f8
c01106a5:	e8 a6 0e 00 00       	call   c0111550 <outb>
c01106aa:	0f b6 77 ff          	movzbl -0x1(%edi),%esi
c01106ae:	83 c4 10             	add    $0x10,%esp
c01106b1:	89 f0                	mov    %esi,%eax
c01106b3:	84 c0                	test   %al,%al
c01106b5:	75 c9                	jne    c0110680 <s_puts+0x20>
c01106b7:	5b                   	pop    %ebx
c01106b8:	5e                   	pop    %esi
c01106b9:	5f                   	pop    %edi
c01106ba:	c3                   	ret
c01106bb:	8d 74 26 00          	lea    0x0(%esi,%eiz,1),%esi
c01106bf:	90                   	nop

c01106c0 <s_pute>:
c01106c0:	55                   	push   %ebp
c01106c1:	57                   	push   %edi
c01106c2:	56                   	push   %esi
c01106c3:	be 5b 00 00 00       	mov    $0x5b,%esi
c01106c8:	53                   	push   %ebx
c01106c9:	e8 32 19 00 00       	call   c0112000 <__x86.get_pc_thunk.bx>
c01106ce:	81 c3 32 39 00 00    	add    $0x3932,%ebx
c01106d4:	83 ec 0c             	sub    $0xc,%esp
c01106d7:	8b 7c 24 20          	mov    0x20(%esp),%edi
c01106db:	8d ab 96 e0 ff ff    	lea    -0x1f6a(%ebx),%ebp
c01106e1:	8d b4 26 00 00 00 00 	lea    0x0(%esi,%eiz,1),%esi
c01106e8:	83 ec 0c             	sub    $0xc,%esp
c01106eb:	68 fd 03 00 00       	push   $0x3fd
c01106f0:	e8 4b 0e 00 00       	call   c0111540 <inb>
c01106f5:	83 c4 10             	add    $0x10,%esp
c01106f8:	a8 20                	test   $0x20,%al
c01106fa:	74 ec                	je     c01106e8 <s_pute+0x28>
c01106fc:	89 f0                	mov    %esi,%eax
c01106fe:	83 ec 08             	sub    $0x8,%esp
c0110701:	83 c5 01             	add    $0x1,%ebp
c0110704:	0f b6 f0             	movzbl %al,%esi
c0110707:	56                   	push   %esi
c0110708:	68 f8 03 00 00       	push   $0x3f8
c011070d:	e8 3e 0e 00 00       	call   c0111550 <outb>
c0110712:	0f b6 75 ff          	movzbl -0x1(%ebp),%esi
c0110716:	83 c4 10             	add    $0x10,%esp
c0110719:	89 f0                	mov    %esi,%eax
c011071b:	84 c0                	test   %al,%al
c011071d:	75 c9                	jne    c01106e8 <s_pute+0x28>
c011071f:	0f b6 37             	movzbl (%edi),%esi
c0110722:	89 f0                	mov    %esi,%eax
c0110724:	84 c0                	test   %al,%al
c0110726:	74 3f                	je     c0110767 <s_pute+0xa7>
c0110728:	83 c7 01             	add    $0x1,%edi
c011072b:	8d 74 26 00          	lea    0x0(%esi,%eiz,1),%esi
c011072f:	90                   	nop
c0110730:	83 ec 0c             	sub    $0xc,%esp
c0110733:	68 fd 03 00 00       	push   $0x3fd
c0110738:	e8 03 0e 00 00       	call   c0111540 <inb>
c011073d:	83 c4 10             	add    $0x10,%esp
c0110740:	a8 20                	test   $0x20,%al
c0110742:	74 ec                	je     c0110730 <s_pute+0x70>
c0110744:	89 f0                	mov    %esi,%eax
c0110746:	83 ec 08             	sub    $0x8,%esp
c0110749:	83 c7 01             	add    $0x1,%edi
c011074c:	0f b6 f0             	movzbl %al,%esi
c011074f:	56                   	push   %esi
c0110750:	68 f8 03 00 00       	push   $0x3f8
c0110755:	e8 f6 0d 00 00       	call   c0111550 <outb>
c011075a:	0f b6 77 ff          	movzbl -0x1(%edi),%esi
c011075e:	83 c4 10             	add    $0x10,%esp
c0110761:	89 f0                	mov    %esi,%eax
c0110763:	84 c0                	test   %al,%al
c0110765:	75 c9                	jne    c0110730 <s_pute+0x70>
c0110767:	83 c4 0c             	add    $0xc,%esp
c011076a:	5b                   	pop    %ebx
c011076b:	5e                   	pop    %esi
c011076c:	5f                   	pop    %edi
c011076d:	5d                   	pop    %ebp
c011076e:	c3                   	ret
c011076f:	90                   	nop

c0110770 <s_set_input_masked>:
c0110770:	c3                   	ret
c0110771:	66 90                	xchg   %ax,%ax
c0110773:	66 90                	xchg   %ax,%ax
c0110775:	66 90                	xchg   %ax,%ax
c0110777:	66 90                	xchg   %ax,%ax
c0110779:	66 90                	xchg   %ax,%ax
c011077b:	66 90                	xchg   %ax,%ax
c011077d:	66 90                	xchg   %ax,%ax
c011077f:	90                   	nop

c0110780 <pic_remap>:
c0110780:	55                   	push   %ebp
c0110781:	57                   	push   %edi
c0110782:	56                   	push   %esi
c0110783:	53                   	push   %ebx
c0110784:	e8 77 18 00 00       	call   c0112000 <__x86.get_pc_thunk.bx>
c0110789:	81 c3 77 38 00 00    	add    $0x3877,%ebx
c011078f:	83 ec 18             	sub    $0x18,%esp
c0110792:	8b 74 24 2c          	mov    0x2c(%esp),%esi
c0110796:	6a 21                	push   $0x21
c0110798:	e8 a3 0d 00 00       	call   c0111540 <inb>
c011079d:	c7 04 24 a1 00 00 00 	movl   $0xa1,(%esp)
c01107a4:	89 c5                	mov    %eax,%ebp
c01107a6:	e8 95 0d 00 00       	call   c0111540 <inb>
c01107ab:	89 c7                	mov    %eax,%edi
c01107ad:	58                   	pop    %eax
c01107ae:	5a                   	pop    %edx
c01107af:	6a 11                	push   $0x11
c01107b1:	6a 20                	push   $0x20
c01107b3:	e8 98 0d 00 00       	call   c0111550 <outb>
c01107b8:	59                   	pop    %ecx
c01107b9:	58                   	pop    %eax
c01107ba:	6a 11                	push   $0x11
c01107bc:	68 a0 00 00 00       	push   $0xa0
c01107c1:	e8 8a 0d 00 00       	call   c0111550 <outb>
c01107c6:	58                   	pop    %eax
c01107c7:	89 f0                	mov    %esi,%eax
c01107c9:	5a                   	pop    %edx
c01107ca:	0f b6 c0             	movzbl %al,%eax
c01107cd:	50                   	push   %eax
c01107ce:	6a 21                	push   $0x21
c01107d0:	e8 7b 0d 00 00       	call   c0111550 <outb>
c01107d5:	59                   	pop    %ecx
c01107d6:	58                   	pop    %eax
c01107d7:	8d 46 08             	lea    0x8(%esi),%eax
c01107da:	0f b6 f0             	movzbl %al,%esi
c01107dd:	56                   	push   %esi
c01107de:	68 a1 00 00 00       	push   $0xa1
c01107e3:	e8 68 0d 00 00       	call   c0111550 <outb>
c01107e8:	58                   	pop    %eax
c01107e9:	5a                   	pop    %edx
c01107ea:	6a 04                	push   $0x4
c01107ec:	6a 21                	push   $0x21
c01107ee:	e8 5d 0d 00 00       	call   c0111550 <outb>
c01107f3:	59                   	pop    %ecx
c01107f4:	5e                   	pop    %esi
c01107f5:	6a 02                	push   $0x2
c01107f7:	68 a1 00 00 00       	push   $0xa1
c01107fc:	e8 4f 0d 00 00       	call   c0111550 <outb>
c0110801:	58                   	pop    %eax
c0110802:	5a                   	pop    %edx
c0110803:	6a 01                	push   $0x1
c0110805:	6a 21                	push   $0x21
c0110807:	e8 44 0d 00 00       	call   c0111550 <outb>
c011080c:	59                   	pop    %ecx
c011080d:	5e                   	pop    %esi
c011080e:	6a 01                	push   $0x1
c0110810:	68 a1 00 00 00       	push   $0xa1
c0110815:	e8 36 0d 00 00       	call   c0111550 <outb>
c011081a:	58                   	pop    %eax
c011081b:	89 e8                	mov    %ebp,%eax
c011081d:	5a                   	pop    %edx
c011081e:	0f b6 e8             	movzbl %al,%ebp
c0110821:	55                   	push   %ebp
c0110822:	6a 21                	push   $0x21
c0110824:	e8 27 0d 00 00       	call   c0111550 <outb>
c0110829:	89 f8                	mov    %edi,%eax
c011082b:	59                   	pop    %ecx
c011082c:	5e                   	pop    %esi
c011082d:	0f b6 f8             	movzbl %al,%edi
c0110830:	57                   	push   %edi
c0110831:	68 a1 00 00 00       	push   $0xa1
c0110836:	e8 15 0d 00 00       	call   c0111550 <outb>
c011083b:	83 c4 1c             	add    $0x1c,%esp
c011083e:	5b                   	pop    %ebx
c011083f:	5e                   	pop    %esi
c0110840:	5f                   	pop    %edi
c0110841:	5d                   	pop    %ebp
c0110842:	c3                   	ret
c0110843:	8d b4 26 00 00 00 00 	lea    0x0(%esi,%eiz,1),%esi
c011084a:	8d b6 00 00 00 00    	lea    0x0(%esi),%esi

c0110850 <pic_disable>:
c0110850:	57                   	push   %edi
c0110851:	bf 01 00 00 00       	mov    $0x1,%edi
c0110856:	56                   	push   %esi
c0110857:	31 f6                	xor    %esi,%esi
c0110859:	53                   	push   %ebx
c011085a:	e8 a1 17 00 00       	call   c0112000 <__x86.get_pc_thunk.bx>
c011085f:	81 c3 a1 37 00 00    	add    $0x37a1,%ebx
c0110865:	83 ec 0c             	sub    $0xc,%esp
c0110868:	6a 20                	push   $0x20
c011086a:	e8 11 ff ff ff       	call   c0110780 <pic_remap>
c011086f:	83 c4 10             	add    $0x10,%esp
c0110872:	8d b6 00 00 00 00    	lea    0x0(%esi),%esi
c0110878:	89 f0                	mov    %esi,%eax
c011087a:	3c 07                	cmp    $0x7,%al
c011087c:	76 3a                	jbe    c01108b8 <pic_disable+0x68>
c011087e:	83 ec 0c             	sub    $0xc,%esp
c0110881:	68 a1 00 00 00       	push   $0xa1
c0110886:	e8 b5 0c 00 00       	call   c0111540 <inb>
c011088b:	5a                   	pop    %edx
c011088c:	89 fa                	mov    %edi,%edx
c011088e:	59                   	pop    %ecx
c011088f:	8d 4e f8             	lea    -0x8(%esi),%ecx
c0110892:	83 c6 01             	add    $0x1,%esi
c0110895:	d3 e2                	shl    %cl,%edx
c0110897:	09 d0                	or     %edx,%eax
c0110899:	0f b6 c0             	movzbl %al,%eax
c011089c:	50                   	push   %eax
c011089d:	68 a1 00 00 00       	push   $0xa1
c01108a2:	e8 a9 0c 00 00       	call   c0111550 <outb>
c01108a7:	89 f0                	mov    %esi,%eax
c01108a9:	83 c4 10             	add    $0x10,%esp
c01108ac:	3c 10                	cmp    $0x10,%al
c01108ae:	75 c8                	jne    c0110878 <pic_disable+0x28>
c01108b0:	5b                   	pop    %ebx
c01108b1:	5e                   	pop    %esi
c01108b2:	5f                   	pop    %edi
c01108b3:	c3                   	ret
c01108b4:	8d 74 26 00          	lea    0x0(%esi,%eiz,1),%esi
c01108b8:	83 ec 0c             	sub    $0xc,%esp
c01108bb:	6a 21                	push   $0x21
c01108bd:	e8 7e 0c 00 00       	call   c0111540 <inb>
c01108c2:	5a                   	pop    %edx
c01108c3:	89 fa                	mov    %edi,%edx
c01108c5:	59                   	pop    %ecx
c01108c6:	89 f1                	mov    %esi,%ecx
c01108c8:	83 c6 01             	add    $0x1,%esi
c01108cb:	d3 e2                	shl    %cl,%edx
c01108cd:	09 d0                	or     %edx,%eax
c01108cf:	0f b6 c0             	movzbl %al,%eax
c01108d2:	50                   	push   %eax
c01108d3:	6a 21                	push   $0x21
c01108d5:	e8 76 0c 00 00       	call   c0111550 <outb>
c01108da:	83 c4 10             	add    $0x10,%esp
c01108dd:	eb 99                	jmp    c0110878 <pic_disable+0x28>
c01108df:	90                   	nop

c01108e0 <pic_mask>:
c01108e0:	57                   	push   %edi
c01108e1:	56                   	push   %esi
c01108e2:	53                   	push   %ebx
c01108e3:	8b 44 24 10          	mov    0x10(%esp),%eax
c01108e7:	e8 14 17 00 00       	call   c0112000 <__x86.get_pc_thunk.bx>
c01108ec:	81 c3 14 37 00 00    	add    $0x3714,%ebx
c01108f2:	3c 07                	cmp    $0x7,%al
c01108f4:	76 32                	jbe    c0110928 <pic_mask+0x48>
c01108f6:	8d 78 f8             	lea    -0x8(%eax),%edi
c01108f9:	be a1 00 00 00       	mov    $0xa1,%esi
c01108fe:	83 ec 0c             	sub    $0xc,%esp
c0110901:	56                   	push   %esi
c0110902:	e8 39 0c 00 00       	call   c0111540 <inb>
c0110907:	5a                   	pop    %edx
c0110908:	ba 01 00 00 00       	mov    $0x1,%edx
c011090d:	59                   	pop    %ecx
c011090e:	89 f9                	mov    %edi,%ecx
c0110910:	d3 e2                	shl    %cl,%edx
c0110912:	09 d0                	or     %edx,%eax
c0110914:	0f b6 c0             	movzbl %al,%eax
c0110917:	50                   	push   %eax
c0110918:	56                   	push   %esi
c0110919:	e8 32 0c 00 00       	call   c0111550 <outb>
c011091e:	83 c4 10             	add    $0x10,%esp
c0110921:	5b                   	pop    %ebx
c0110922:	5e                   	pop    %esi
c0110923:	5f                   	pop    %edi
c0110924:	c3                   	ret
c0110925:	8d 76 00             	lea    0x0(%esi),%esi
c0110928:	89 c7                	mov    %eax,%edi
c011092a:	be 21 00 00 00       	mov    $0x21,%esi
c011092f:	eb cd                	jmp    c01108fe <pic_mask+0x1e>
c0110931:	8d b4 26 00 00 00 00 	lea    0x0(%esi,%eiz,1),%esi
c0110938:	8d b4 26 00 00 00 00 	lea    0x0(%esi,%eiz,1),%esi
c011093f:	90                   	nop

c0110940 <pic_unmask>:
c0110940:	57                   	push   %edi
c0110941:	56                   	push   %esi
c0110942:	53                   	push   %ebx
c0110943:	8b 44 24 10          	mov    0x10(%esp),%eax
c0110947:	e8 b4 16 00 00       	call   c0112000 <__x86.get_pc_thunk.bx>
c011094c:	81 c3 b4 36 00 00    	add    $0x36b4,%ebx
c0110952:	3c 07                	cmp    $0x7,%al
c0110954:	76 2a                	jbe    c0110980 <pic_unmask+0x40>
c0110956:	8d 70 f8             	lea    -0x8(%eax),%esi
c0110959:	bf a1 00 00 00       	mov    $0xa1,%edi
c011095e:	83 ec 0c             	sub    $0xc,%esp
c0110961:	57                   	push   %edi
c0110962:	e8 d9 0b 00 00       	call   c0111540 <inb>
c0110967:	5a                   	pop    %edx
c0110968:	59                   	pop    %ecx
c0110969:	0f b3 f0             	btr    %esi,%eax
c011096c:	0f b6 c0             	movzbl %al,%eax
c011096f:	50                   	push   %eax
c0110970:	57                   	push   %edi
c0110971:	e8 da 0b 00 00       	call   c0111550 <outb>
c0110976:	83 c4 10             	add    $0x10,%esp
c0110979:	5b                   	pop    %ebx
c011097a:	5e                   	pop    %esi
c011097b:	5f                   	pop    %edi
c011097c:	c3                   	ret
c011097d:	8d 76 00             	lea    0x0(%esi),%esi
c0110980:	89 c6                	mov    %eax,%esi
c0110982:	bf 21 00 00 00       	mov    $0x21,%edi
c0110987:	eb d5                	jmp    c011095e <pic_unmask+0x1e>
c0110989:	8d b4 26 00 00 00 00 	lea    0x0(%esi,%eiz,1),%esi

c0110990 <pic_send_eoi>:
c0110990:	53                   	push   %ebx
c0110991:	e8 6a 16 00 00       	call   c0112000 <__x86.get_pc_thunk.bx>
c0110996:	81 c3 6a 36 00 00    	add    $0x366a,%ebx
c011099c:	83 ec 08             	sub    $0x8,%esp
c011099f:	80 7c 24 10 07       	cmpb   $0x7,0x10(%esp)
c01109a4:	77 1a                	ja     c01109c0 <pic_send_eoi+0x30>
c01109a6:	83 ec 08             	sub    $0x8,%esp
c01109a9:	6a 20                	push   $0x20
c01109ab:	6a 20                	push   $0x20
c01109ad:	e8 9e 0b 00 00       	call   c0111550 <outb>
c01109b2:	83 c4 18             	add    $0x18,%esp
c01109b5:	5b                   	pop    %ebx
c01109b6:	c3                   	ret
c01109b7:	8d b4 26 00 00 00 00 	lea    0x0(%esi,%eiz,1),%esi
c01109be:	66 90                	xchg   %ax,%ax
c01109c0:	83 ec 08             	sub    $0x8,%esp
c01109c3:	6a 20                	push   $0x20
c01109c5:	68 a0 00 00 00       	push   $0xa0
c01109ca:	e8 81 0b 00 00       	call   c0111550 <outb>
c01109cf:	83 c4 10             	add    $0x10,%esp
c01109d2:	eb d2                	jmp    c01109a6 <pic_send_eoi+0x16>
c01109d4:	66 90                	xchg   %ax,%ax
c01109d6:	66 90                	xchg   %ax,%ax
c01109d8:	66 90                	xchg   %ax,%ax
c01109da:	66 90                	xchg   %ax,%ax
c01109dc:	66 90                	xchg   %ax,%ax
c01109de:	66 90                	xchg   %ax,%ax

c01109e0 <paging_map_page>:
c01109e0:	c3                   	ret
c01109e1:	8d b4 26 00 00 00 00 	lea    0x0(%esi,%eiz,1),%esi
c01109e8:	8d b4 26 00 00 00 00 	lea    0x0(%esi,%eiz,1),%esi
c01109ef:	90                   	nop

c01109f0 <paging_unmap_page>:
c01109f0:	c3                   	ret
c01109f1:	8d b4 26 00 00 00 00 	lea    0x0(%esi,%eiz,1),%esi
c01109f8:	8d b4 26 00 00 00 00 	lea    0x0(%esi,%eiz,1),%esi
c01109ff:	90                   	nop

c0110a00 <paging_remap_page>:
c0110a00:	c3                   	ret
c0110a01:	8d b4 26 00 00 00 00 	lea    0x0(%esi,%eiz,1),%esi
c0110a08:	8d b4 26 00 00 00 00 	lea    0x0(%esi,%eiz,1),%esi
c0110a0f:	90                   	nop

c0110a10 <paging_walk_page>:
c0110a10:	c3                   	ret
c0110a11:	8d b4 26 00 00 00 00 	lea    0x0(%esi,%eiz,1),%esi
c0110a18:	8d b4 26 00 00 00 00 	lea    0x0(%esi,%eiz,1),%esi
c0110a1f:	90                   	nop

c0110a20 <paging_edit_page>:
c0110a20:	c3                   	ret
c0110a21:	8d b4 26 00 00 00 00 	lea    0x0(%esi,%eiz,1),%esi
c0110a28:	8d b4 26 00 00 00 00 	lea    0x0(%esi,%eiz,1),%esi
c0110a2f:	90                   	nop

c0110a30 <paging_load_pml4>:
c0110a30:	c3                   	ret
c0110a31:	8d b4 26 00 00 00 00 	lea    0x0(%esi,%eiz,1),%esi
c0110a38:	8d b4 26 00 00 00 00 	lea    0x0(%esi,%eiz,1),%esi
c0110a3f:	90                   	nop

c0110a40 <paging_get_pml4>:
c0110a40:	c3                   	ret
c0110a41:	66 90                	xchg   %ax,%ax
c0110a43:	66 90                	xchg   %ax,%ax
c0110a45:	66 90                	xchg   %ax,%ax
c0110a47:	66 90                	xchg   %ax,%ax
c0110a49:	66 90                	xchg   %ax,%ax
c0110a4b:	66 90                	xchg   %ax,%ax
c0110a4d:	66 90                	xchg   %ax,%ax
c0110a4f:	90                   	nop

c0110a50 <print_eax>:
c0110a50:	55                   	push   %ebp
c0110a51:	57                   	push   %edi
c0110a52:	56                   	push   %esi
c0110a53:	53                   	push   %ebx
c0110a54:	e8 a7 15 00 00       	call   c0112000 <__x86.get_pc_thunk.bx>
c0110a59:	81 c3 a7 35 00 00    	add    $0x35a7,%ebx
c0110a5f:	83 ec 28             	sub    $0x28,%esp
c0110a62:	8b 44 24 3c          	mov    0x3c(%esp),%eax
c0110a66:	89 c2                	mov    %eax,%edx
c0110a68:	89 c1                	mov    %eax,%ecx
c0110a6a:	89 c5                	mov    %eax,%ebp
c0110a6c:	89 c7                	mov    %eax,%edi
c0110a6e:	c1 ea 14             	shr    $0x14,%edx
c0110a71:	c1 e9 10             	shr    $0x10,%ecx
c0110a74:	89 c6                	mov    %eax,%esi
c0110a76:	89 54 24 18          	mov    %edx,0x18(%esp)
c0110a7a:	8d 93 9e e0 ff ff    	lea    -0x1f62(%ebx),%edx
c0110a80:	c1 ed 04             	shr    $0x4,%ebp
c0110a83:	c1 ef 08             	shr    $0x8,%edi
c0110a86:	89 4c 24 14          	mov    %ecx,0x14(%esp)
c0110a8a:	83 e5 0f             	and    $0xf,%ebp
c0110a8d:	83 e7 0f             	and    $0xf,%edi
c0110a90:	c1 ee 0c             	shr    $0xc,%esi
c0110a93:	52                   	push   %edx
c0110a94:	83 e6 03             	and    $0x3,%esi
c0110a97:	e8 24 05 00 00       	call   c0110fc0 <v_puts>
c0110a9c:	8d 93 a6 e0 ff ff    	lea    -0x1f5a(%ebx),%edx
c0110aa2:	89 14 24             	mov    %edx,(%esp)
c0110aa5:	e8 16 05 00 00       	call   c0110fc0 <v_puts>
c0110aaa:	8b 44 24 40          	mov    0x40(%esp),%eax
c0110aae:	83 e0 0f             	and    $0xf,%eax
c0110ab1:	89 04 24             	mov    %eax,(%esp)
c0110ab4:	e8 37 05 00 00       	call   c0110ff0 <v_puti>
c0110ab9:	8d 83 b6 e0 ff ff    	lea    -0x1f4a(%ebx),%eax
c0110abf:	89 04 24             	mov    %eax,(%esp)
c0110ac2:	e8 f9 04 00 00       	call   c0110fc0 <v_puts>
c0110ac7:	89 2c 24             	mov    %ebp,(%esp)
c0110aca:	e8 21 05 00 00       	call   c0110ff0 <v_puti>
c0110acf:	8d 83 c0 e0 ff ff    	lea    -0x1f40(%ebx),%eax
c0110ad5:	89 04 24             	mov    %eax,(%esp)
c0110ad8:	e8 e3 04 00 00       	call   c0110fc0 <v_puts>
c0110add:	89 3c 24             	mov    %edi,(%esp)
c0110ae0:	e8 0b 05 00 00       	call   c0110ff0 <v_puti>
c0110ae5:	8d 83 ce e0 ff ff    	lea    -0x1f32(%ebx),%eax
c0110aeb:	89 04 24             	mov    %eax,(%esp)
c0110aee:	e8 cd 04 00 00       	call   c0110fc0 <v_puts>
c0110af3:	89 34 24             	mov    %esi,(%esp)
c0110af6:	e8 f5 04 00 00       	call   c0110ff0 <v_puti>
c0110afb:	8d 83 e1 e0 ff ff    	lea    -0x1f1f(%ebx),%eax
c0110b01:	89 04 24             	mov    %eax,(%esp)
c0110b04:	e8 b7 04 00 00       	call   c0110fc0 <v_puts>
c0110b09:	8b 44 24 18          	mov    0x18(%esp),%eax
c0110b0d:	83 e0 0f             	and    $0xf,%eax
c0110b10:	89 04 24             	mov    %eax,(%esp)
c0110b13:	e8 d8 04 00 00       	call   c0110ff0 <v_puti>
c0110b18:	8d 83 f7 e0 ff ff    	lea    -0x1f09(%ebx),%eax
c0110b1e:	89 04 24             	mov    %eax,(%esp)
c0110b21:	e8 9a 04 00 00       	call   c0110fc0 <v_puts>
c0110b26:	0f b6 44 24 1c       	movzbl 0x1c(%esp),%eax
c0110b2b:	89 04 24             	mov    %eax,(%esp)
c0110b2e:	e8 bd 04 00 00       	call   c0110ff0 <v_puti>
c0110b33:	83 c4 2c             	add    $0x2c,%esp
c0110b36:	5b                   	pop    %ebx
c0110b37:	5e                   	pop    %esi
c0110b38:	5f                   	pop    %edi
c0110b39:	5d                   	pop    %ebp
c0110b3a:	c3                   	ret
c0110b3b:	8d 74 26 00          	lea    0x0(%esi,%eiz,1),%esi
c0110b3f:	90                   	nop

c0110b40 <print_ebx>:
c0110b40:	56                   	push   %esi
c0110b41:	53                   	push   %ebx
c0110b42:	e8 b9 14 00 00       	call   c0112000 <__x86.get_pc_thunk.bx>
c0110b47:	81 c3 b9 34 00 00    	add    $0x34b9,%ebx
c0110b4d:	83 ec 10             	sub    $0x10,%esp
c0110b50:	8b 74 24 1c          	mov    0x1c(%esp),%esi
c0110b54:	8d 83 0e e1 ff ff    	lea    -0x1ef2(%ebx),%eax
c0110b5a:	50                   	push   %eax
c0110b5b:	e8 60 04 00 00       	call   c0110fc0 <v_puts>
c0110b60:	8d 83 16 e1 ff ff    	lea    -0x1eea(%ebx),%eax
c0110b66:	89 04 24             	mov    %eax,(%esp)
c0110b69:	e8 52 04 00 00       	call   c0110fc0 <v_puts>
c0110b6e:	89 f0                	mov    %esi,%eax
c0110b70:	0f be c0             	movsbl %al,%eax
c0110b73:	89 04 24             	mov    %eax,(%esp)
c0110b76:	e8 75 04 00 00       	call   c0110ff0 <v_puti>
c0110b7b:	8d 83 26 e1 ff ff    	lea    -0x1eda(%ebx),%eax
c0110b81:	89 04 24             	mov    %eax,(%esp)
c0110b84:	e8 37 04 00 00       	call   c0110fc0 <v_puts>
c0110b89:	89 f0                	mov    %esi,%eax
c0110b8b:	0f be c4             	movsbl %ah,%eax
c0110b8e:	89 04 24             	mov    %eax,(%esp)
c0110b91:	e8 5a 04 00 00       	call   c0110ff0 <v_puti>
c0110b96:	8d 83 c4 ea ff ff    	lea    -0x153c(%ebx),%eax
c0110b9c:	89 04 24             	mov    %eax,(%esp)
c0110b9f:	e8 1c 04 00 00       	call   c0110fc0 <v_puts>
c0110ba4:	89 f0                	mov    %esi,%eax
c0110ba6:	c1 fe 18             	sar    $0x18,%esi
c0110ba9:	c1 e0 08             	shl    $0x8,%eax
c0110bac:	c1 f8 18             	sar    $0x18,%eax
c0110baf:	89 04 24             	mov    %eax,(%esp)
c0110bb2:	e8 39 04 00 00       	call   c0110ff0 <v_puti>
c0110bb7:	8d 83 3a e1 ff ff    	lea    -0x1ec6(%ebx),%eax
c0110bbd:	89 04 24             	mov    %eax,(%esp)
c0110bc0:	e8 fb 03 00 00       	call   c0110fc0 <v_puts>
c0110bc5:	89 34 24             	mov    %esi,(%esp)
c0110bc8:	e8 23 04 00 00       	call   c0110ff0 <v_puti>
c0110bcd:	83 c4 14             	add    $0x14,%esp
c0110bd0:	5b                   	pop    %ebx
c0110bd1:	5e                   	pop    %esi
c0110bd2:	c3                   	ret
c0110bd3:	8d b4 26 00 00 00 00 	lea    0x0(%esi,%eiz,1),%esi
c0110bda:	8d b6 00 00 00 00    	lea    0x0(%esi),%esi

c0110be0 <print_edx>:
c0110be0:	53                   	push   %ebx
c0110be1:	e8 1a 14 00 00       	call   c0112000 <__x86.get_pc_thunk.bx>
c0110be6:	81 c3 1a 34 00 00    	add    $0x341a,%ebx
c0110bec:	83 ec 14             	sub    $0x14,%esp
c0110bef:	8d 83 4e e1 ff ff    	lea    -0x1eb2(%ebx),%eax
c0110bf5:	50                   	push   %eax
c0110bf6:	e8 c5 03 00 00       	call   c0110fc0 <v_puts>
c0110bfb:	8d 83 56 e1 ff ff    	lea    -0x1eaa(%ebx),%eax
c0110c01:	89 04 24             	mov    %eax,(%esp)
c0110c04:	e8 b7 03 00 00       	call   c0110fc0 <v_puts>
c0110c09:	58                   	pop    %eax
c0110c0a:	ff 74 24 1c          	push   0x1c(%esp)
c0110c0e:	e8 7d 04 00 00       	call   c0111090 <v_putb>
c0110c13:	8d 83 62 e1 ff ff    	lea    -0x1e9e(%ebx),%eax
c0110c19:	89 04 24             	mov    %eax,(%esp)
c0110c1c:	e8 9f 03 00 00       	call   c0110fc0 <v_puts>
c0110c21:	8d 83 6b e1 ff ff    	lea    -0x1e95(%ebx),%eax
c0110c27:	89 04 24             	mov    %eax,(%esp)
c0110c2a:	e8 91 03 00 00       	call   c0110fc0 <v_puts>
c0110c2f:	8d 83 f4 ea ff ff    	lea    -0x150c(%ebx),%eax
c0110c35:	89 04 24             	mov    %eax,(%esp)
c0110c38:	e8 83 03 00 00       	call   c0110fc0 <v_puts>
c0110c3d:	8d 83 20 eb ff ff    	lea    -0x14e0(%ebx),%eax
c0110c43:	89 04 24             	mov    %eax,(%esp)
c0110c46:	e8 75 03 00 00       	call   c0110fc0 <v_puts>
c0110c4b:	8d 83 44 eb ff ff    	lea    -0x14bc(%ebx),%eax
c0110c51:	89 04 24             	mov    %eax,(%esp)
c0110c54:	e8 67 03 00 00       	call   c0110fc0 <v_puts>
c0110c59:	8d 83 68 eb ff ff    	lea    -0x1498(%ebx),%eax
c0110c5f:	89 04 24             	mov    %eax,(%esp)
c0110c62:	e8 59 03 00 00       	call   c0110fc0 <v_puts>
c0110c67:	8d 83 8c eb ff ff    	lea    -0x1474(%ebx),%eax
c0110c6d:	89 04 24             	mov    %eax,(%esp)
c0110c70:	e8 4b 03 00 00       	call   c0110fc0 <v_puts>
c0110c75:	8d 83 b4 eb ff ff    	lea    -0x144c(%ebx),%eax
c0110c7b:	89 04 24             	mov    %eax,(%esp)
c0110c7e:	e8 3d 03 00 00       	call   c0110fc0 <v_puts>
c0110c83:	83 c4 18             	add    $0x18,%esp
c0110c86:	5b                   	pop    %ebx
c0110c87:	c3                   	ret
c0110c88:	8d b4 26 00 00 00 00 	lea    0x0(%esi,%eiz,1),%esi
c0110c8f:	90                   	nop

c0110c90 <cpuid_test>:
c0110c90:	53                   	push   %ebx
c0110c91:	e8 6a 13 00 00       	call   c0112000 <__x86.get_pc_thunk.bx>
c0110c96:	81 c3 6a 33 00 00    	add    $0x336a,%ebx
c0110c9c:	83 ec 24             	sub    $0x24,%esp
c0110c9f:	8d 83 89 e1 ff ff    	lea    -0x1e77(%ebx),%eax
c0110ca5:	50                   	push   %eax
c0110ca6:	e8 15 03 00 00       	call   c0110fc0 <v_puts>
c0110cab:	58                   	pop    %eax
c0110cac:	8d 44 24 18          	lea    0x18(%esp),%eax
c0110cb0:	50                   	push   %eax
c0110cb1:	8d 44 24 18          	lea    0x18(%esp),%eax
c0110cb5:	50                   	push   %eax
c0110cb6:	8d 44 24 18          	lea    0x18(%esp),%eax
c0110cba:	50                   	push   %eax
c0110cbb:	8d 44 24 18          	lea    0x18(%esp),%eax
c0110cbf:	50                   	push   %eax
c0110cc0:	6a 01                	push   $0x1
c0110cc2:	e8 29 08 00 00       	call   c01114f0 <cpuid>
c0110cc7:	83 c4 14             	add    $0x14,%esp
c0110cca:	ff 74 24 0c          	push   0xc(%esp)
c0110cce:	e8 7d fd ff ff       	call   c0110a50 <print_eax>
c0110cd3:	5a                   	pop    %edx
c0110cd4:	ff 74 24 10          	push   0x10(%esp)
c0110cd8:	e8 63 fe ff ff       	call   c0110b40 <print_ebx>
c0110cdd:	59                   	pop    %ecx
c0110cde:	ff 74 24 18          	push   0x18(%esp)
c0110ce2:	e8 f9 fe ff ff       	call   c0110be0 <print_edx>
c0110ce7:	83 c4 28             	add    $0x28,%esp
c0110cea:	5b                   	pop    %ebx
c0110ceb:	c3                   	ret
c0110cec:	8d 74 26 00          	lea    0x0(%esi,%eiz,1),%esi

c0110cf0 <kentry>:
c0110cf0:	55                   	push   %ebp
c0110cf1:	57                   	push   %edi
c0110cf2:	56                   	push   %esi
c0110cf3:	53                   	push   %ebx
c0110cf4:	e8 07 13 00 00       	call   c0112000 <__x86.get_pc_thunk.bx>
c0110cf9:	81 c3 07 33 00 00    	add    $0x3307,%ebx
c0110cff:	83 ec 2c             	sub    $0x2c,%esp
c0110d02:	8b 74 24 44          	mov    0x44(%esp),%esi
c0110d06:	e8 e5 f4 ff ff       	call   c01101f0 <s_init>
c0110d0b:	83 ec 08             	sub    $0x8,%esp
c0110d0e:	8d 83 99 e1 ff ff    	lea    -0x1e67(%ebx),%eax
c0110d14:	56                   	push   %esi
c0110d15:	50                   	push   %eax
c0110d16:	e8 95 f5 ff ff       	call   c01102b0 <s_printf>
c0110d1b:	e8 50 0e 00 00       	call   c0111b70 <gdt_init>
c0110d20:	e8 9b 08 00 00       	call   c01115c0 <idt_init>
c0110d25:	58                   	pop    %eax
c0110d26:	5a                   	pop    %edx
c0110d27:	ff 76 2c             	push   0x2c(%esi)
c0110d2a:	ff 76 30             	push   0x30(%esi)
c0110d2d:	e8 ee f2 ff ff       	call   c0110020 <pmm_parse_memory_map>
c0110d32:	59                   	pop    %ecx
c0110d33:	5f                   	pop    %edi
c0110d34:	6a 00                	push   $0x0
c0110d36:	6a 0e                	push   $0xe
c0110d38:	8d bb af e1 ff ff    	lea    -0x1e51(%ebx),%edi
c0110d3e:	e8 dd 00 00 00       	call   c0110e20 <v_init>
c0110d43:	83 c4 0c             	add    $0xc,%esp
c0110d46:	6a 10                	push   $0x10
c0110d48:	8d 6c 24 08          	lea    0x8(%esp),%ebp
c0110d4c:	55                   	push   %ebp
c0110d4d:	ff 74 24 4c          	push   0x4c(%esp)
c0110d51:	e8 3a 07 00 00       	call   c0111490 <utoa>
c0110d56:	89 04 24             	mov    %eax,(%esp)
c0110d59:	e8 62 02 00 00       	call   c0110fc0 <v_puts>
c0110d5e:	89 3c 24             	mov    %edi,(%esp)
c0110d61:	e8 5a 02 00 00       	call   c0110fc0 <v_puts>
c0110d66:	83 c4 0c             	add    $0xc,%esp
c0110d69:	6a 10                	push   $0x10
c0110d6b:	55                   	push   %ebp
c0110d6c:	56                   	push   %esi
c0110d6d:	8d b3 a2 e1 ff ff    	lea    -0x1e5e(%ebx),%esi
c0110d73:	e8 18 07 00 00       	call   c0111490 <utoa>
c0110d78:	89 04 24             	mov    %eax,(%esp)
c0110d7b:	e8 40 02 00 00       	call   c0110fc0 <v_puts>
c0110d80:	89 3c 24             	mov    %edi,(%esp)
c0110d83:	e8 38 02 00 00       	call   c0110fc0 <v_puts>
c0110d88:	89 34 24             	mov    %esi,(%esp)
c0110d8b:	e8 d0 f8 ff ff       	call   c0110660 <s_puts>
c0110d90:	89 34 24             	mov    %esi,(%esp)
c0110d93:	e8 28 02 00 00       	call   c0110fc0 <v_puts>
c0110d98:	83 c4 3c             	add    $0x3c,%esp
c0110d9b:	5b                   	pop    %ebx
c0110d9c:	5e                   	pop    %esi
c0110d9d:	5f                   	pop    %edi
c0110d9e:	5d                   	pop    %ebp
c0110d9f:	c3                   	ret

c0110da0 <v_entry>:
c0110da0:	0f b6 54 24 0c       	movzbl 0xc(%esp),%edx
c0110da5:	0f b6 44 24 04       	movzbl 0x4(%esp),%eax
c0110daa:	c1 e2 04             	shl    $0x4,%edx
c0110dad:	0a 54 24 08          	or     0x8(%esp),%dl
c0110db1:	c1 e2 08             	shl    $0x8,%edx
c0110db4:	09 d0                	or     %edx,%eax
c0110db6:	c3                   	ret
c0110db7:	8d b4 26 00 00 00 00 	lea    0x0(%esi,%eiz,1),%esi
c0110dbe:	66 90                	xchg   %ax,%ax

c0110dc0 <v_clear_buffer>:
c0110dc0:	53                   	push   %ebx
c0110dc1:	8b 44 24 08          	mov    0x8(%esp),%eax
c0110dc5:	e8 36 12 00 00       	call   c0112000 <__x86.get_pc_thunk.bx>
c0110dca:	81 c3 36 32 00 00    	add    $0x3236,%ebx
c0110dd0:	0f b6 54 24 10       	movzbl 0x10(%esp),%edx
c0110dd5:	8b 00                	mov    (%eax),%eax
c0110dd7:	c1 e2 04             	shl    $0x4,%edx
c0110dda:	0a 54 24 0c          	or     0xc(%esp),%dl
c0110dde:	c1 e2 08             	shl    $0x8,%edx
c0110de1:	8d 88 30 11 00 00    	lea    0x1130(%eax),%ecx
c0110de7:	8d b4 26 00 00 00 00 	lea    0x0(%esi,%eiz,1),%esi
c0110dee:	66 90                	xchg   %ax,%ax
c0110df0:	66 89 10             	mov    %dx,(%eax)
c0110df3:	83 c0 04             	add    $0x4,%eax
c0110df6:	66 89 50 fe          	mov    %dx,-0x2(%eax)
c0110dfa:	39 c8                	cmp    %ecx,%eax
c0110dfc:	75 f2                	jne    c0110df0 <v_clear_buffer+0x30>
c0110dfe:	c7 83 0c fc ff ff 01 	movl   $0x1,-0x3f4(%ebx)
c0110e05:	00 00 00 
c0110e08:	c7 83 70 11 00 00 00 	movl   $0x0,0x1170(%ebx)
c0110e0f:	00 00 00 
c0110e12:	5b                   	pop    %ebx
c0110e13:	c3                   	ret
c0110e14:	8d b4 26 00 00 00 00 	lea    0x0(%esi,%eiz,1),%esi
c0110e1b:	8d 74 26 00          	lea    0x0(%esi,%eiz,1),%esi
c0110e1f:	90                   	nop

c0110e20 <v_init>:
c0110e20:	e8 e7 11 00 00       	call   c011200c <__x86.get_pc_thunk.cx>
c0110e25:	81 c1 db 31 00 00    	add    $0x31db,%ecx
c0110e2b:	56                   	push   %esi
c0110e2c:	b8 00 80 0b 00       	mov    $0xb8000,%eax
c0110e31:	53                   	push   %ebx
c0110e32:	8b 5c 24 10          	mov    0x10(%esp),%ebx
c0110e36:	8b 74 24 0c          	mov    0xc(%esp),%esi
c0110e3a:	89 da                	mov    %ebx,%edx
c0110e3c:	c1 e2 04             	shl    $0x4,%edx
c0110e3f:	09 f2                	or     %esi,%edx
c0110e41:	c7 81 74 11 00 00 00 	movl   $0xb8000,0x1174(%ecx)
c0110e48:	80 0b 00 
c0110e4b:	c1 e2 08             	shl    $0x8,%edx
c0110e4e:	66 90                	xchg   %ax,%ax
c0110e50:	66 89 10             	mov    %dx,(%eax)
c0110e53:	83 c0 04             	add    $0x4,%eax
c0110e56:	66 89 50 fe          	mov    %dx,-0x2(%eax)
c0110e5a:	3d 30 91 0b 00       	cmp    $0xb9130,%eax
c0110e5f:	75 ef                	jne    c0110e50 <v_init+0x30>
c0110e61:	89 f0                	mov    %esi,%eax
c0110e63:	88 99 6c 11 00 00    	mov    %bl,0x116c(%ecx)
c0110e69:	5b                   	pop    %ebx
c0110e6a:	c7 81 0c fc ff ff 01 	movl   $0x1,-0x3f4(%ecx)
c0110e71:	00 00 00 
c0110e74:	5e                   	pop    %esi
c0110e75:	c7 81 70 11 00 00 00 	movl   $0x0,0x1170(%ecx)
c0110e7c:	00 00 00 
c0110e7f:	88 81 08 fc ff ff    	mov    %al,-0x3f8(%ecx)
c0110e85:	c3                   	ret
c0110e86:	8d b4 26 00 00 00 00 	lea    0x0(%esi,%eiz,1),%esi
c0110e8d:	8d 76 00             	lea    0x0(%esi),%esi

c0110e90 <v_putnl>:
c0110e90:	53                   	push   %ebx
c0110e91:	e8 6a 11 00 00       	call   c0112000 <__x86.get_pc_thunk.bx>
c0110e96:	81 c3 6a 31 00 00    	add    $0x316a,%ebx
c0110e9c:	8b 83 0c fc ff ff    	mov    -0x3f4(%ebx),%eax
c0110ea2:	83 f8 36             	cmp    $0x36,%eax
c0110ea5:	77 17                	ja     c0110ebe <v_putnl+0x2e>
c0110ea7:	8d 14 80             	lea    (%eax,%eax,4),%edx
c0110eaa:	83 c0 01             	add    $0x1,%eax
c0110ead:	c1 e2 04             	shl    $0x4,%edx
c0110eb0:	89 83 0c fc ff ff    	mov    %eax,-0x3f4(%ebx)
c0110eb6:	89 93 70 11 00 00    	mov    %edx,0x1170(%ebx)
c0110ebc:	5b                   	pop    %ebx
c0110ebd:	c3                   	ret
c0110ebe:	0f b6 93 6c 11 00 00 	movzbl 0x116c(%ebx),%edx
c0110ec5:	8b 83 74 11 00 00    	mov    0x1174(%ebx),%eax
c0110ecb:	c1 e2 04             	shl    $0x4,%edx
c0110ece:	0a 93 08 fc ff ff    	or     -0x3f8(%ebx),%dl
c0110ed4:	8d 88 30 11 00 00    	lea    0x1130(%eax),%ecx
c0110eda:	c1 e2 08             	shl    $0x8,%edx
c0110edd:	8d 76 00             	lea    0x0(%esi),%esi
c0110ee0:	66 89 10             	mov    %dx,(%eax)
c0110ee3:	83 c0 04             	add    $0x4,%eax
c0110ee6:	66 89 50 fe          	mov    %dx,-0x2(%eax)
c0110eea:	39 c8                	cmp    %ecx,%eax
c0110eec:	75 f2                	jne    c0110ee0 <v_putnl+0x50>
c0110eee:	b8 02 00 00 00       	mov    $0x2,%eax
c0110ef3:	ba 50 00 00 00       	mov    $0x50,%edx
c0110ef8:	89 93 70 11 00 00    	mov    %edx,0x1170(%ebx)
c0110efe:	89 83 0c fc ff ff    	mov    %eax,-0x3f4(%ebx)
c0110f04:	5b                   	pop    %ebx
c0110f05:	c3                   	ret
c0110f06:	8d b4 26 00 00 00 00 	lea    0x0(%esi,%eiz,1),%esi
c0110f0d:	8d 76 00             	lea    0x0(%esi),%esi

c0110f10 <v_putc>:
c0110f10:	e8 f3 10 00 00       	call   c0112008 <__x86.get_pc_thunk.dx>
c0110f15:	81 c2 eb 30 00 00    	add    $0x30eb,%edx
c0110f1b:	55                   	push   %ebp
c0110f1c:	57                   	push   %edi
c0110f1d:	56                   	push   %esi
c0110f1e:	53                   	push   %ebx
c0110f1f:	83 ec 08             	sub    $0x8,%esp
c0110f22:	8b 44 24 1c          	mov    0x1c(%esp),%eax
c0110f26:	3c 0a                	cmp    $0xa,%al
c0110f28:	74 7e                	je     c0110fa8 <v_putc+0x98>
c0110f2a:	0f b6 9a 6c 11 00 00 	movzbl 0x116c(%edx),%ebx
c0110f31:	8b b2 70 11 00 00    	mov    0x1170(%edx),%esi
c0110f37:	8b ba 74 11 00 00    	mov    0x1174(%edx),%edi
c0110f3d:	89 d9                	mov    %ebx,%ecx
c0110f3f:	89 34 24             	mov    %esi,(%esp)
c0110f42:	01 f6                	add    %esi,%esi
c0110f44:	c1 e1 04             	shl    $0x4,%ecx
c0110f47:	8d 2c 37             	lea    (%edi,%esi,1),%ebp
c0110f4a:	88 4c 24 07          	mov    %cl,0x7(%esp)
c0110f4e:	3c 09                	cmp    $0x9,%al
c0110f50:	74 2e                	je     c0110f80 <v_putc+0x70>
c0110f52:	8b 0c 24             	mov    (%esp),%ecx
c0110f55:	0f b6 5c 24 07       	movzbl 0x7(%esp),%ebx
c0110f5a:	0f b6 c0             	movzbl %al,%eax
c0110f5d:	0a 9a 08 fc ff ff    	or     -0x3f8(%edx),%bl
c0110f63:	83 c1 01             	add    $0x1,%ecx
c0110f66:	89 8a 70 11 00 00    	mov    %ecx,0x1170(%edx)
c0110f6c:	89 da                	mov    %ebx,%edx
c0110f6e:	c1 e2 08             	shl    $0x8,%edx
c0110f71:	09 d0                	or     %edx,%eax
c0110f73:	66 89 45 00          	mov    %ax,0x0(%ebp)
c0110f77:	83 c4 08             	add    $0x8,%esp
c0110f7a:	5b                   	pop    %ebx
c0110f7b:	5e                   	pop    %esi
c0110f7c:	5f                   	pop    %edi
c0110f7d:	5d                   	pop    %ebp
c0110f7e:	c3                   	ret
c0110f7f:	90                   	nop
c0110f80:	09 cb                	or     %ecx,%ebx
c0110f82:	8b 0c 24             	mov    (%esp),%ecx
c0110f85:	c1 e3 08             	shl    $0x8,%ebx
c0110f88:	83 cb 09             	or     $0x9,%ebx
c0110f8b:	83 c1 02             	add    $0x2,%ecx
c0110f8e:	66 89 5d 00          	mov    %bx,0x0(%ebp)
c0110f92:	89 8a 70 11 00 00    	mov    %ecx,0x1170(%edx)
c0110f98:	66 89 5c 37 02       	mov    %bx,0x2(%edi,%esi,1)
c0110f9d:	83 c4 08             	add    $0x8,%esp
c0110fa0:	5b                   	pop    %ebx
c0110fa1:	5e                   	pop    %esi
c0110fa2:	5f                   	pop    %edi
c0110fa3:	5d                   	pop    %ebp
c0110fa4:	c3                   	ret
c0110fa5:	8d 76 00             	lea    0x0(%esi),%esi
c0110fa8:	83 c4 08             	add    $0x8,%esp
c0110fab:	5b                   	pop    %ebx
c0110fac:	5e                   	pop    %esi
c0110fad:	5f                   	pop    %edi
c0110fae:	5d                   	pop    %ebp
c0110faf:	e9 dc fe ff ff       	jmp    c0110e90 <v_putnl>
c0110fb4:	8d b4 26 00 00 00 00 	lea    0x0(%esi,%eiz,1),%esi
c0110fbb:	8d 74 26 00          	lea    0x0(%esi,%eiz,1),%esi
c0110fbf:	90                   	nop

c0110fc0 <v_puts>:
c0110fc0:	53                   	push   %ebx
c0110fc1:	8b 5c 24 08          	mov    0x8(%esp),%ebx
c0110fc5:	0f be 03             	movsbl (%ebx),%eax
c0110fc8:	84 c0                	test   %al,%al
c0110fca:	74 16                	je     c0110fe2 <v_puts+0x22>
c0110fcc:	83 c3 01             	add    $0x1,%ebx
c0110fcf:	90                   	nop
c0110fd0:	50                   	push   %eax
c0110fd1:	83 c3 01             	add    $0x1,%ebx
c0110fd4:	e8 37 ff ff ff       	call   c0110f10 <v_putc>
c0110fd9:	0f be 43 ff          	movsbl -0x1(%ebx),%eax
c0110fdd:	5a                   	pop    %edx
c0110fde:	84 c0                	test   %al,%al
c0110fe0:	75 ee                	jne    c0110fd0 <v_puts+0x10>
c0110fe2:	5b                   	pop    %ebx
c0110fe3:	c3                   	ret
c0110fe4:	8d b4 26 00 00 00 00 	lea    0x0(%esi,%eiz,1),%esi
c0110feb:	8d 74 26 00          	lea    0x0(%esi,%eiz,1),%esi
c0110fef:	90                   	nop

c0110ff0 <v_puti>:
c0110ff0:	55                   	push   %ebp
c0110ff1:	89 e5                	mov    %esp,%ebp
c0110ff3:	57                   	push   %edi
c0110ff4:	56                   	push   %esi
c0110ff5:	53                   	push   %ebx
c0110ff6:	e8 05 10 00 00       	call   c0112000 <__x86.get_pc_thunk.bx>
c0110ffb:	81 c3 05 30 00 00    	add    $0x3005,%ebx
c0111001:	83 ec 18             	sub    $0x18,%esp
c0111004:	8b 7d 08             	mov    0x8(%ebp),%edi
c0111007:	57                   	push   %edi
c0111008:	e8 a3 03 00 00       	call   c01113b0 <digit_count>
c011100d:	83 c4 10             	add    $0x10,%esp
c0111010:	83 c0 10             	add    $0x10,%eax
c0111013:	89 e1                	mov    %esp,%ecx
c0111015:	89 c2                	mov    %eax,%edx
c0111017:	25 00 f0 ff ff       	and    $0xfffff000,%eax
c011101c:	29 c1                	sub    %eax,%ecx
c011101e:	83 e2 f0             	and    $0xfffffff0,%edx
c0111021:	39 cc                	cmp    %ecx,%esp
c0111023:	74 12                	je     c0111037 <v_puti+0x47>
c0111025:	81 ec 00 10 00 00    	sub    $0x1000,%esp
c011102b:	83 8c 24 fc 0f 00 00 	orl    $0x0,0xffc(%esp)
c0111032:	00 
c0111033:	39 cc                	cmp    %ecx,%esp
c0111035:	75 ee                	jne    c0111025 <v_puti+0x35>
c0111037:	81 e2 ff 0f 00 00    	and    $0xfff,%edx
c011103d:	29 d4                	sub    %edx,%esp
c011103f:	85 d2                	test   %edx,%edx
c0111041:	75 3d                	jne    c0111080 <v_puti+0x90>
c0111043:	89 e6                	mov    %esp,%esi
c0111045:	83 ec 08             	sub    $0x8,%esp
c0111048:	56                   	push   %esi
c0111049:	57                   	push   %edi
c011104a:	e8 a1 03 00 00       	call   c01113f0 <itoa>
c011104f:	0f be 06             	movsbl (%esi),%eax
c0111052:	89 f4                	mov    %esi,%esp
c0111054:	84 c0                	test   %al,%al
c0111056:	74 1f                	je     c0111077 <v_puti+0x87>
c0111058:	83 c6 01             	add    $0x1,%esi
c011105b:	8d 74 26 00          	lea    0x0(%esi,%eiz,1),%esi
c011105f:	90                   	nop
c0111060:	83 ec 0c             	sub    $0xc,%esp
c0111063:	83 c6 01             	add    $0x1,%esi
c0111066:	50                   	push   %eax
c0111067:	e8 a4 fe ff ff       	call   c0110f10 <v_putc>
c011106c:	0f be 46 ff          	movsbl -0x1(%esi),%eax
c0111070:	83 c4 10             	add    $0x10,%esp
c0111073:	84 c0                	test   %al,%al
c0111075:	75 e9                	jne    c0111060 <v_puti+0x70>
c0111077:	8d 65 f4             	lea    -0xc(%ebp),%esp
c011107a:	5b                   	pop    %ebx
c011107b:	5e                   	pop    %esi
c011107c:	5f                   	pop    %edi
c011107d:	5d                   	pop    %ebp
c011107e:	c3                   	ret
c011107f:	90                   	nop
c0111080:	83 4c 14 fc 00       	orl    $0x0,-0x4(%esp,%edx,1)
c0111085:	eb bc                	jmp    c0111043 <v_puti+0x53>
c0111087:	8d b4 26 00 00 00 00 	lea    0x0(%esi,%eiz,1),%esi
c011108e:	66 90                	xchg   %ax,%ax

c0111090 <v_putb>:
c0111090:	57                   	push   %edi
c0111091:	56                   	push   %esi
c0111092:	53                   	push   %ebx
c0111093:	83 ec 20             	sub    $0x20,%esp
c0111096:	8b 44 24 30          	mov    0x30(%esp),%eax
c011109a:	85 c0                	test   %eax,%eax
c011109c:	74 60                	je     c01110fe <v_putb+0x6e>
c011109e:	8d 5c 24 1f          	lea    0x1f(%esp),%ebx
c01110a2:	89 c2                	mov    %eax,%edx
c01110a4:	8d 74 26 00          	lea    0x0(%esi,%eiz,1),%esi
c01110a8:	89 d1                	mov    %edx,%ecx
c01110aa:	83 eb 01             	sub    $0x1,%ebx
c01110ad:	83 e1 01             	and    $0x1,%ecx
c01110b0:	83 c1 30             	add    $0x30,%ecx
c01110b3:	88 4b 01             	mov    %cl,0x1(%ebx)
c01110b6:	d1 ea                	shr    %edx
c01110b8:	75 ee                	jne    c01110a8 <v_putb+0x18>
c01110ba:	0f bd c0             	bsr    %eax,%eax
c01110bd:	83 f0 1f             	xor    $0x1f,%eax
c01110c0:	8d 70 ff             	lea    -0x1(%eax),%esi
c01110c3:	31 db                	xor    %ebx,%ebx
c01110c5:	89 e7                	mov    %esp,%edi
c01110c7:	eb 17                	jmp    c01110e0 <v_putb+0x50>
c01110c9:	8d b4 26 00 00 00 00 	lea    0x0(%esi,%eiz,1),%esi
c01110d0:	6a 30                	push   $0x30
c01110d2:	83 c3 01             	add    $0x1,%ebx
c01110d5:	e8 36 fe ff ff       	call   c0110f10 <v_putc>
c01110da:	5a                   	pop    %edx
c01110db:	83 fb 20             	cmp    $0x20,%ebx
c01110de:	74 17                	je     c01110f7 <v_putb+0x67>
c01110e0:	39 de                	cmp    %ebx,%esi
c01110e2:	73 ec                	jae    c01110d0 <v_putb+0x40>
c01110e4:	0f be 04 3b          	movsbl (%ebx,%edi,1),%eax
c01110e8:	83 c3 01             	add    $0x1,%ebx
c01110eb:	50                   	push   %eax
c01110ec:	e8 1f fe ff ff       	call   c0110f10 <v_putc>
c01110f1:	58                   	pop    %eax
c01110f2:	83 fb 20             	cmp    $0x20,%ebx
c01110f5:	75 e9                	jne    c01110e0 <v_putb+0x50>
c01110f7:	83 c4 20             	add    $0x20,%esp
c01110fa:	5b                   	pop    %ebx
c01110fb:	5e                   	pop    %esi
c01110fc:	5f                   	pop    %edi
c01110fd:	c3                   	ret
c01110fe:	be 1f 00 00 00       	mov    $0x1f,%esi
c0111103:	eb be                	jmp    c01110c3 <v_putb+0x33>
c0111105:	8d b4 26 00 00 00 00 	lea    0x0(%esi,%eiz,1),%esi
c011110c:	8d 74 26 00          	lea    0x0(%esi,%eiz,1),%esi

c0111110 <v_printf>:
c0111110:	e8 ef 0e 00 00       	call   c0112004 <__x86.get_pc_thunk.ax>
c0111115:	05 eb 2e 00 00       	add    $0x2eeb,%eax
c011111a:	55                   	push   %ebp
c011111b:	89 e5                	mov    %esp,%ebp
c011111d:	57                   	push   %edi
c011111e:	56                   	push   %esi
c011111f:	53                   	push   %ebx
c0111120:	83 ec 3c             	sub    $0x3c,%esp
c0111123:	8b 75 08             	mov    0x8(%ebp),%esi
c0111126:	89 45 c0             	mov    %eax,-0x40(%ebp)
c0111129:	0f be 06             	movsbl (%esi),%eax
c011112c:	84 c0                	test   %al,%al
c011112e:	74 5a                	je     c011118a <.L74+0xe>
c0111130:	8d 55 0c             	lea    0xc(%ebp),%edx
c0111133:	31 f6                	xor    %esi,%esi
c0111135:	89 d7                	mov    %edx,%edi
c0111137:	8d b4 26 00 00 00 00 	lea    0x0(%esi,%eiz,1),%esi
c011113e:	66 90                	xchg   %ax,%ax
c0111140:	3c 25                	cmp    $0x25,%al
c0111142:	75 2c                	jne    c0111170 <v_printf+0x60>
c0111144:	8b 45 08             	mov    0x8(%ebp),%eax
c0111147:	83 c6 01             	add    $0x1,%esi
c011114a:	0f b6 04 30          	movzbl (%eax,%esi,1),%eax
c011114e:	88 45 c4             	mov    %al,-0x3c(%ebp)
c0111151:	83 e8 62             	sub    $0x62,%eax
c0111154:	3c 16                	cmp    $0x16,%al
c0111156:	77 24                	ja     c011117c <.L74>
c0111158:	8b 55 c0             	mov    -0x40(%ebp),%edx
c011115b:	0f b6 c0             	movzbl %al,%eax
c011115e:	8b 8c 82 e4 ed ff ff 	mov    -0x121c(%edx,%eax,4),%ecx
c0111165:	01 d1                	add    %edx,%ecx
c0111167:	ff e1                	jmp    *%ecx
c0111169:	8d b4 26 00 00 00 00 	lea    0x0(%esi,%eiz,1),%esi
c0111170:	83 ec 0c             	sub    $0xc,%esp
c0111173:	50                   	push   %eax
c0111174:	e8 97 fd ff ff       	call   c0110f10 <v_putc>
c0111179:	83 c4 10             	add    $0x10,%esp

c011117c <.L74>:
c011117c:	8b 45 08             	mov    0x8(%ebp),%eax
c011117f:	83 c6 01             	add    $0x1,%esi
c0111182:	0f be 04 30          	movsbl (%eax,%esi,1),%eax
c0111186:	84 c0                	test   %al,%al
c0111188:	75 b6                	jne    c0111140 <v_printf+0x30>
c011118a:	8d 65 f4             	lea    -0xc(%ebp),%esp
c011118d:	5b                   	pop    %ebx
c011118e:	5e                   	pop    %esi
c011118f:	5f                   	pop    %edi
c0111190:	5d                   	pop    %ebp
c0111191:	c3                   	ret
c0111192:	8d b6 00 00 00 00    	lea    0x0(%esi),%esi

c0111198 <.L70>:
c0111198:	8b 45 c0             	mov    -0x40(%ebp),%eax
c011119b:	8d 98 25 e7 ff ff    	lea    -0x18db(%eax),%ebx
c01111a1:	b8 30 00 00 00       	mov    $0x30,%eax
c01111a6:	8d b4 26 00 00 00 00 	lea    0x0(%esi,%eiz,1),%esi
c01111ad:	8d 76 00             	lea    0x0(%esi),%esi
c01111b0:	83 ec 0c             	sub    $0xc,%esp
c01111b3:	83 c3 01             	add    $0x1,%ebx
c01111b6:	50                   	push   %eax
c01111b7:	e8 54 fd ff ff       	call   c0110f10 <v_putc>
c01111bc:	0f be 43 ff          	movsbl -0x1(%ebx),%eax
c01111c0:	83 c4 10             	add    $0x10,%esp
c01111c3:	84 c0                	test   %al,%al
c01111c5:	75 e9                	jne    c01111b0 <.L70+0x18>

c01111c7 <.L105>:
c01111c7:	89 f8                	mov    %edi,%eax
c01111c9:	83 ec 0c             	sub    $0xc,%esp
c01111cc:	83 c6 01             	add    $0x1,%esi
c01111cf:	83 c7 04             	add    $0x4,%edi
c01111d2:	ff 30                	push   (%eax)
c01111d4:	e8 b7 fe ff ff       	call   c0111090 <v_putb>
c01111d9:	8b 45 08             	mov    0x8(%ebp),%eax
c01111dc:	83 c4 10             	add    $0x10,%esp
c01111df:	0f be 04 30          	movsbl (%eax,%esi,1),%eax
c01111e3:	84 c0                	test   %al,%al
c01111e5:	0f 85 55 ff ff ff    	jne    c0111140 <v_printf+0x30>
c01111eb:	eb 9d                	jmp    c011118a <.L74+0xe>
c01111ed:	8d 76 00             	lea    0x0(%esi),%esi

c01111f0 <.L72>:
c01111f0:	89 f8                	mov    %edi,%eax
c01111f2:	83 c6 01             	add    $0x1,%esi
c01111f5:	83 c7 04             	add    $0x4,%edi
c01111f8:	0f be 00             	movsbl (%eax),%eax
c01111fb:	50                   	push   %eax
c01111fc:	e8 0f fd ff ff       	call   c0110f10 <v_putc>
c0111201:	8b 45 08             	mov    0x8(%ebp),%eax
c0111204:	59                   	pop    %ecx
c0111205:	0f be 04 30          	movsbl (%eax,%esi,1),%eax
c0111209:	84 c0                	test   %al,%al
c011120b:	0f 85 2f ff ff ff    	jne    c0111140 <v_printf+0x30>
c0111211:	e9 74 ff ff ff       	jmp    c011118a <.L74+0xe>
c0111216:	8d b4 26 00 00 00 00 	lea    0x0(%esi,%eiz,1),%esi
c011121d:	8d 76 00             	lea    0x0(%esi),%esi

c0111220 <.L71>:
c0111220:	89 f8                	mov    %edi,%eax
c0111222:	89 65 c4             	mov    %esp,-0x3c(%ebp)
c0111225:	83 ec 0c             	sub    $0xc,%esp
c0111228:	8b 5d c0             	mov    -0x40(%ebp),%ebx
c011122b:	8b 08                	mov    (%eax),%ecx
c011122d:	83 c7 04             	add    $0x4,%edi
c0111230:	51                   	push   %ecx
c0111231:	89 4d bc             	mov    %ecx,-0x44(%ebp)
c0111234:	e8 77 01 00 00       	call   c01113b0 <digit_count>
c0111239:	8b 5d c4             	mov    -0x3c(%ebp),%ebx
c011123c:	83 c4 10             	add    $0x10,%esp
c011123f:	8b 4d bc             	mov    -0x44(%ebp),%ecx
c0111242:	83 c0 10             	add    $0x10,%eax
c0111245:	89 c2                	mov    %eax,%edx
c0111247:	25 00 f0 ff ff       	and    $0xfffff000,%eax
c011124c:	29 c3                	sub    %eax,%ebx
c011124e:	83 e2 f0             	and    $0xfffffff0,%edx
c0111251:	39 dc                	cmp    %ebx,%esp
c0111253:	74 12                	je     c0111267 <.L71+0x47>
c0111255:	81 ec 00 10 00 00    	sub    $0x1000,%esp
c011125b:	83 8c 24 fc 0f 00 00 	orl    $0x0,0xffc(%esp)
c0111262:	00 
c0111263:	39 dc                	cmp    %ebx,%esp
c0111265:	75 ee                	jne    c0111255 <.L71+0x35>
c0111267:	89 d0                	mov    %edx,%eax
c0111269:	25 ff 0f 00 00       	and    $0xfff,%eax
c011126e:	29 c4                	sub    %eax,%esp
c0111270:	85 c0                	test   %eax,%eax
c0111272:	74 05                	je     c0111279 <.L71+0x59>
c0111274:	83 4c 04 fc 00       	orl    $0x0,-0x4(%esp,%eax,1)
c0111279:	89 e0                	mov    %esp,%eax
c011127b:	83 ec 08             	sub    $0x8,%esp
c011127e:	8b 5d c0             	mov    -0x40(%ebp),%ebx
c0111281:	50                   	push   %eax
c0111282:	89 45 bc             	mov    %eax,-0x44(%ebp)
c0111285:	51                   	push   %ecx
c0111286:	e8 65 01 00 00       	call   c01113f0 <itoa>
c011128b:	8b 45 bc             	mov    -0x44(%ebp),%eax
c011128e:	83 c4 10             	add    $0x10,%esp
c0111291:	0f be 08             	movsbl (%eax),%ecx
c0111294:	8d 58 01             	lea    0x1(%eax),%ebx
c0111297:	84 c9                	test   %cl,%cl
c0111299:	74 1c                	je     c01112b7 <.L71+0x97>
c011129b:	8d 74 26 00          	lea    0x0(%esi,%eiz,1),%esi
c011129f:	90                   	nop
c01112a0:	83 ec 0c             	sub    $0xc,%esp
c01112a3:	83 c3 01             	add    $0x1,%ebx
c01112a6:	51                   	push   %ecx
c01112a7:	e8 64 fc ff ff       	call   c0110f10 <v_putc>
c01112ac:	0f be 4b ff          	movsbl -0x1(%ebx),%ecx
c01112b0:	83 c4 10             	add    $0x10,%esp
c01112b3:	84 c9                	test   %cl,%cl
c01112b5:	75 e9                	jne    c01112a0 <.L71+0x80>
c01112b7:	8b 45 08             	mov    0x8(%ebp),%eax
c01112ba:	83 c6 01             	add    $0x1,%esi
c01112bd:	8b 65 c4             	mov    -0x3c(%ebp),%esp
c01112c0:	0f be 04 30          	movsbl (%eax,%esi,1),%eax
c01112c4:	84 c0                	test   %al,%al
c01112c6:	0f 85 74 fe ff ff    	jne    c0111140 <v_printf+0x30>
c01112cc:	e9 b9 fe ff ff       	jmp    c011118a <.L74+0xe>
c01112d1:	8d b4 26 00 00 00 00 	lea    0x0(%esi,%eiz,1),%esi

c01112d8 <.L67>:
c01112d8:	83 ec 04             	sub    $0x4,%esp
c01112db:	89 f8                	mov    %edi,%eax
c01112dd:	8d 4d c8             	lea    -0x38(%ebp),%ecx
c01112e0:	8b 5d c0             	mov    -0x40(%ebp),%ebx
c01112e3:	6a 10                	push   $0x10
c01112e5:	83 c7 04             	add    $0x4,%edi
c01112e8:	51                   	push   %ecx
c01112e9:	ff 30                	push   (%eax)
c01112eb:	e8 a0 01 00 00       	call   c0111490 <utoa>
c01112f0:	0f be 45 c8          	movsbl -0x38(%ebp),%eax
c01112f4:	83 c4 10             	add    $0x10,%esp
c01112f7:	8d 5d c9             	lea    -0x37(%ebp),%ebx
c01112fa:	84 c0                	test   %al,%al
c01112fc:	0f 84 7a fe ff ff    	je     c011117c <.L74>
c0111302:	8d b6 00 00 00 00    	lea    0x0(%esi),%esi
c0111308:	83 ec 0c             	sub    $0xc,%esp
c011130b:	83 c3 01             	add    $0x1,%ebx
c011130e:	50                   	push   %eax
c011130f:	e8 fc fb ff ff       	call   c0110f10 <v_putc>
c0111314:	0f be 43 ff          	movsbl -0x1(%ebx),%eax
c0111318:	83 c4 10             	add    $0x10,%esp
c011131b:	84 c0                	test   %al,%al
c011131d:	75 e9                	jne    c0111308 <.L67+0x30>
c011131f:	8b 45 08             	mov    0x8(%ebp),%eax
c0111322:	83 c6 01             	add    $0x1,%esi
c0111325:	0f be 04 30          	movsbl (%eax,%esi,1),%eax
c0111329:	84 c0                	test   %al,%al
c011132b:	0f 85 0f fe ff ff    	jne    c0111140 <v_printf+0x30>
c0111331:	e9 54 fe ff ff       	jmp    c011118a <.L74+0xe>
c0111336:	8d b4 26 00 00 00 00 	lea    0x0(%esi,%eiz,1),%esi
c011133d:	8d 76 00             	lea    0x0(%esi),%esi

c0111340 <.L69>:
c0111340:	8d 5f 04             	lea    0x4(%edi),%ebx
c0111343:	8b 3f                	mov    (%edi),%edi
c0111345:	0f be 07             	movsbl (%edi),%eax
c0111348:	84 c0                	test   %al,%al
c011134a:	74 16                	je     c0111362 <.L69+0x22>
c011134c:	83 c7 01             	add    $0x1,%edi
c011134f:	90                   	nop
c0111350:	50                   	push   %eax
c0111351:	83 c7 01             	add    $0x1,%edi
c0111354:	e8 b7 fb ff ff       	call   c0110f10 <v_putc>
c0111359:	0f be 47 ff          	movsbl -0x1(%edi),%eax
c011135d:	5a                   	pop    %edx
c011135e:	84 c0                	test   %al,%al
c0111360:	75 ee                	jne    c0111350 <.L69+0x10>
c0111362:	8b 45 08             	mov    0x8(%ebp),%eax
c0111365:	83 c6 01             	add    $0x1,%esi
c0111368:	89 df                	mov    %ebx,%edi
c011136a:	0f be 04 30          	movsbl (%eax,%esi,1),%eax
c011136e:	84 c0                	test   %al,%al
c0111370:	0f 85 ca fd ff ff    	jne    c0111140 <v_printf+0x30>
c0111376:	e9 0f fe ff ff       	jmp    c011118a <.L74+0xe>
c011137b:	66 90                	xchg   %ax,%ax
c011137d:	66 90                	xchg   %ax,%ax
c011137f:	90                   	nop

c0111380 <strlen>:
c0111380:	8b 54 24 04          	mov    0x4(%esp),%edx
c0111384:	31 c0                	xor    %eax,%eax
c0111386:	80 3a 00             	cmpb   $0x0,(%edx)
c0111389:	74 15                	je     c01113a0 <strlen+0x20>
c011138b:	8d 74 26 00          	lea    0x0(%esi,%eiz,1),%esi
c011138f:	90                   	nop
c0111390:	83 c0 01             	add    $0x1,%eax
c0111393:	80 3c 02 00          	cmpb   $0x0,(%edx,%eax,1)
c0111397:	75 f7                	jne    c0111390 <strlen+0x10>
c0111399:	c3                   	ret
c011139a:	8d b6 00 00 00 00    	lea    0x0(%esi),%esi
c01113a0:	c3                   	ret
c01113a1:	8d b4 26 00 00 00 00 	lea    0x0(%esi,%eiz,1),%esi
c01113a8:	8d b4 26 00 00 00 00 	lea    0x0(%esi,%eiz,1),%esi
c01113af:	90                   	nop

c01113b0 <digit_count>:
c01113b0:	56                   	push   %esi
c01113b1:	53                   	push   %ebx
c01113b2:	8b 54 24 0c          	mov    0xc(%esp),%edx
c01113b6:	bb 01 00 00 00       	mov    $0x1,%ebx
c01113bb:	85 d2                	test   %edx,%edx
c01113bd:	74 22                	je     c01113e1 <digit_count+0x31>
c01113bf:	bb 00 00 00 00       	mov    $0x0,%ebx
c01113c4:	7e 1b                	jle    c01113e1 <digit_count+0x31>
c01113c6:	be cd cc cc cc       	mov    $0xcccccccd,%esi
c01113cb:	8d 74 26 00          	lea    0x0(%esi,%eiz,1),%esi
c01113cf:	90                   	nop
c01113d0:	89 d0                	mov    %edx,%eax
c01113d2:	89 d1                	mov    %edx,%ecx
c01113d4:	83 c3 01             	add    $0x1,%ebx
c01113d7:	f7 e6                	mul    %esi
c01113d9:	c1 ea 03             	shr    $0x3,%edx
c01113dc:	83 f9 09             	cmp    $0x9,%ecx
c01113df:	7f ef                	jg     c01113d0 <digit_count+0x20>
c01113e1:	89 d8                	mov    %ebx,%eax
c01113e3:	5b                   	pop    %ebx
c01113e4:	5e                   	pop    %esi
c01113e5:	c3                   	ret
c01113e6:	8d b4 26 00 00 00 00 	lea    0x0(%esi,%eiz,1),%esi
c01113ed:	8d 76 00             	lea    0x0(%esi),%esi

c01113f0 <itoa>:
c01113f0:	55                   	push   %ebp
c01113f1:	57                   	push   %edi
c01113f2:	56                   	push   %esi
c01113f3:	53                   	push   %ebx
c01113f4:	8b 4c 24 14          	mov    0x14(%esp),%ecx
c01113f8:	85 c9                	test   %ecx,%ecx
c01113fa:	74 64                	je     c0111460 <itoa+0x70>
c01113fc:	7e 7a                	jle    c0111478 <itoa+0x88>
c01113fe:	89 ca                	mov    %ecx,%edx
c0111400:	31 f6                	xor    %esi,%esi
c0111402:	bd cd cc cc cc       	mov    $0xcccccccd,%ebp
c0111407:	8d b4 26 00 00 00 00 	lea    0x0(%esi,%eiz,1),%esi
c011140e:	66 90                	xchg   %ax,%ax
c0111410:	89 d0                	mov    %edx,%eax
c0111412:	89 d7                	mov    %edx,%edi
c0111414:	89 f3                	mov    %esi,%ebx
c0111416:	83 c6 01             	add    $0x1,%esi
c0111419:	f7 e5                	mul    %ebp
c011141b:	c1 ea 03             	shr    $0x3,%edx
c011141e:	83 ff 09             	cmp    $0x9,%edi
c0111421:	7f ed                	jg     c0111410 <itoa+0x20>
c0111423:	03 74 24 18          	add    0x18(%esp),%esi
c0111427:	03 5c 24 18          	add    0x18(%esp),%ebx
c011142b:	bf 67 66 66 66       	mov    $0x66666667,%edi
c0111430:	89 c8                	mov    %ecx,%eax
c0111432:	83 eb 01             	sub    $0x1,%ebx
c0111435:	f7 ef                	imul   %edi
c0111437:	89 c8                	mov    %ecx,%eax
c0111439:	c1 f8 1f             	sar    $0x1f,%eax
c011143c:	c1 fa 02             	sar    $0x2,%edx
c011143f:	29 c2                	sub    %eax,%edx
c0111441:	8d 04 92             	lea    (%edx,%edx,4),%eax
c0111444:	01 c0                	add    %eax,%eax
c0111446:	29 c1                	sub    %eax,%ecx
c0111448:	83 c1 30             	add    $0x30,%ecx
c011144b:	88 4b 01             	mov    %cl,0x1(%ebx)
c011144e:	89 d1                	mov    %edx,%ecx
c0111450:	85 d2                	test   %edx,%edx
c0111452:	75 dc                	jne    c0111430 <itoa+0x40>
c0111454:	c6 06 00             	movb   $0x0,(%esi)
c0111457:	5b                   	pop    %ebx
c0111458:	5e                   	pop    %esi
c0111459:	5f                   	pop    %edi
c011145a:	5d                   	pop    %ebp
c011145b:	c3                   	ret
c011145c:	8d 74 26 00          	lea    0x0(%esi,%eiz,1),%esi
c0111460:	8b 44 24 18          	mov    0x18(%esp),%eax
c0111464:	ba 30 00 00 00       	mov    $0x30,%edx
c0111469:	66 89 10             	mov    %dx,(%eax)
c011146c:	5b                   	pop    %ebx
c011146d:	5e                   	pop    %esi
c011146e:	5f                   	pop    %edi
c011146f:	5d                   	pop    %ebp
c0111470:	c3                   	ret
c0111471:	8d b4 26 00 00 00 00 	lea    0x0(%esi,%eiz,1),%esi
c0111478:	8b 74 24 18          	mov    0x18(%esp),%esi
c011147c:	bb ff ff ff ff       	mov    $0xffffffff,%ebx
c0111481:	eb a4                	jmp    c0111427 <itoa+0x37>
c0111483:	8d b4 26 00 00 00 00 	lea    0x0(%esi,%eiz,1),%esi
c011148a:	8d b6 00 00 00 00    	lea    0x0(%esi),%esi

c0111490 <utoa>:
c0111490:	55                   	push   %ebp
c0111491:	57                   	push   %edi
c0111492:	56                   	push   %esi
c0111493:	53                   	push   %ebx
c0111494:	8b 4c 24 14          	mov    0x14(%esp),%ecx
c0111498:	8b 44 24 1c          	mov    0x1c(%esp),%eax
c011149c:	85 c9                	test   %ecx,%ecx
c011149e:	75 18                	jne    c01114b8 <utoa+0x28>
c01114a0:	8b 44 24 18          	mov    0x18(%esp),%eax
c01114a4:	ba 30 00 00 00       	mov    $0x30,%edx
c01114a9:	66 89 10             	mov    %dx,(%eax)
c01114ac:	8b 44 24 18          	mov    0x18(%esp),%eax
c01114b0:	5b                   	pop    %ebx
c01114b1:	5e                   	pop    %esi
c01114b2:	5f                   	pop    %edi
c01114b3:	5d                   	pop    %ebp
c01114b4:	c3                   	ret
c01114b5:	8d 76 00             	lea    0x0(%esi),%esi
c01114b8:	0f b6 f0             	movzbl %al,%esi
c01114bb:	31 ff                	xor    %edi,%edi
c01114bd:	eb 03                	jmp    c01114c2 <utoa+0x32>
c01114bf:	90                   	nop
c01114c0:	89 c1                	mov    %eax,%ecx
c01114c2:	31 d2                	xor    %edx,%edx
c01114c4:	89 c8                	mov    %ecx,%eax
c01114c6:	f7 f6                	div    %esi
c01114c8:	80 fa 09             	cmp    $0x9,%dl
c01114cb:	8d 6a 30             	lea    0x30(%edx),%ebp
c01114ce:	8d 5a 37             	lea    0x37(%edx),%ebx
c01114d1:	8b 54 24 18          	mov    0x18(%esp),%edx
c01114d5:	0f 4e dd             	cmovle %ebp,%ebx
c01114d8:	88 1c 3a             	mov    %bl,(%edx,%edi,1)
c01114db:	83 c7 01             	add    $0x1,%edi
c01114de:	39 f1                	cmp    %esi,%ecx
c01114e0:	73 de                	jae    c01114c0 <utoa+0x30>
c01114e2:	8b 44 24 18          	mov    0x18(%esp),%eax
c01114e6:	c6 04 3a 00          	movb   $0x0,(%edx,%edi,1)
c01114ea:	5b                   	pop    %ebx
c01114eb:	5e                   	pop    %esi
c01114ec:	5f                   	pop    %edi
c01114ed:	5d                   	pop    %ebp
c01114ee:	c3                   	ret
c01114ef:	90                   	nop

c01114f0 <cpuid>:
c01114f0:	83 ec 10             	sub    $0x10,%esp
c01114f3:	31 c0                	xor    %eax,%eax
c01114f5:	31 db                	xor    %ebx,%ebx
c01114f7:	31 c9                	xor    %ecx,%ecx
c01114f9:	31 d2                	xor    %edx,%edx
c01114fb:	8b 44 24 14          	mov    0x14(%esp),%eax
c01114ff:	0f a2                	cpuid
c0111501:	8b 44 24 18          	mov    0x18(%esp),%eax
c0111505:	89 04 24             	mov    %eax,(%esp)
c0111508:	8b 14 24             	mov    (%esp),%edx
c011150b:	89 5c 24 04          	mov    %ebx,0x4(%esp)
c011150f:	89 10                	mov    %edx,(%eax)
c0111511:	8b 44 24 1c          	mov    0x1c(%esp),%eax
c0111515:	8b 54 24 04          	mov    0x4(%esp),%edx
c0111519:	89 4c 24 08          	mov    %ecx,0x8(%esp)
c011151d:	89 10                	mov    %edx,(%eax)
c011151f:	8b 44 24 20          	mov    0x20(%esp),%eax
c0111523:	8b 54 24 08          	mov    0x8(%esp),%edx
c0111527:	89 54 24 0c          	mov    %edx,0xc(%esp)
c011152b:	89 10                	mov    %edx,(%eax)
c011152d:	8b 44 24 24          	mov    0x24(%esp),%eax
c0111531:	8b 54 24 0c          	mov    0xc(%esp),%edx
c0111535:	89 10                	mov    %edx,(%eax)
c0111537:	83 c4 10             	add    $0x10,%esp
c011153a:	c3                   	ret
c011153b:	8d 74 26 00          	lea    0x0(%esi,%eiz,1),%esi
c011153f:	90                   	nop

c0111540 <inb>:
c0111540:	8b 54 24 04          	mov    0x4(%esp),%edx
c0111544:	ec                   	in     (%dx),%al
c0111545:	c3                   	ret
c0111546:	8d b4 26 00 00 00 00 	lea    0x0(%esi,%eiz,1),%esi
c011154d:	8d 76 00             	lea    0x0(%esi),%esi

c0111550 <outb>:
c0111550:	8b 54 24 04          	mov    0x4(%esp),%edx
c0111554:	ee                   	out    %al,(%dx)
c0111555:	c3                   	ret
c0111556:	8d b4 26 00 00 00 00 	lea    0x0(%esi,%eiz,1),%esi
c011155d:	8d 76 00             	lea    0x0(%esi),%esi

c0111560 <wait_for_io>:
c0111560:	8b 44 24 04          	mov    0x4(%esp),%eax
c0111564:	8d 50 ff             	lea    -0x1(%eax),%edx
c0111567:	a8 01                	test   $0x1,%al
c0111569:	74 0d                	je     c0111578 <wait_for_io+0x18>
c011156b:	90                   	nop
c011156c:	89 d0                	mov    %edx,%eax
c011156e:	85 d2                	test   %edx,%edx
c0111570:	74 0e                	je     c0111580 <wait_for_io+0x20>
c0111572:	8d b6 00 00 00 00    	lea    0x0(%esi),%esi
c0111578:	90                   	nop
c0111579:	90                   	nop
c011157a:	83 e8 02             	sub    $0x2,%eax
c011157d:	75 f9                	jne    c0111578 <wait_for_io+0x18>
c011157f:	c3                   	ret
c0111580:	c3                   	ret
c0111581:	8d b4 26 00 00 00 00 	lea    0x0(%esi,%eiz,1),%esi
c0111588:	8d b4 26 00 00 00 00 	lea    0x0(%esi,%eiz,1),%esi
c011158f:	90                   	nop

c0111590 <sleep>:
c0111590:	69 44 24 04 ff ff ff 	imul   $0x2ffffff,0x4(%esp),%eax
c0111597:	02 
c0111598:	8d 50 ff             	lea    -0x1(%eax),%edx
c011159b:	a8 01                	test   $0x1,%al
c011159d:	74 11                	je     c01115b0 <sleep+0x20>
c011159f:	90                   	nop
c01115a0:	89 d0                	mov    %edx,%eax
c01115a2:	85 d2                	test   %edx,%edx
c01115a4:	74 12                	je     c01115b8 <sleep+0x28>
c01115a6:	8d b4 26 00 00 00 00 	lea    0x0(%esi,%eiz,1),%esi
c01115ad:	8d 76 00             	lea    0x0(%esi),%esi
c01115b0:	90                   	nop
c01115b1:	90                   	nop
c01115b2:	83 e8 02             	sub    $0x2,%eax
c01115b5:	75 f9                	jne    c01115b0 <sleep+0x20>
c01115b7:	c3                   	ret
c01115b8:	c3                   	ret
c01115b9:	66 90                	xchg   %ax,%ax
c01115bb:	66 90                	xchg   %ax,%ax
c01115bd:	66 90                	xchg   %ax,%ax
c01115bf:	90                   	nop

c01115c0 <idt_init>:
c01115c0:	57                   	push   %edi
c01115c1:	ba ff 07 00 00       	mov    $0x7ff,%edx
c01115c6:	56                   	push   %esi
c01115c7:	e8 44 0a 00 00       	call   c0112010 <__x86.get_pc_thunk.si>
c01115cc:	81 c6 34 2a 00 00    	add    $0x2a34,%esi
c01115d2:	53                   	push   %ebx
c01115d3:	8d 86 90 11 00 00    	lea    0x1190(%esi),%eax
c01115d9:	66 89 96 80 11 00 00 	mov    %dx,0x1180(%esi)
c01115e0:	c7 c1 ef 1c 11 c0    	mov    $0xc0111cef,%ecx
c01115e6:	89 86 82 11 00 00    	mov    %eax,0x1182(%esi)
c01115ec:	0f b7 9e 40 ee ff ff 	movzwl -0x11c0(%esi),%ebx
c01115f3:	8d b8 00 01 00 00    	lea    0x100(%eax),%edi
c01115f9:	8d b4 26 00 00 00 00 	lea    0x0(%esi,%eiz,1),%esi
c0111600:	8b 11                	mov    (%ecx),%edx
c0111602:	66 c7 40 02 08 00    	movw   $0x8,0x2(%eax)
c0111608:	83 c0 08             	add    $0x8,%eax
c011160b:	83 c1 04             	add    $0x4,%ecx
c011160e:	66 89 58 fc          	mov    %bx,-0x4(%eax)
c0111612:	66 89 50 f8          	mov    %dx,-0x8(%eax)
c0111616:	c1 ea 10             	shr    $0x10,%edx
c0111619:	66 89 50 fe          	mov    %dx,-0x2(%eax)
c011161d:	39 f8                	cmp    %edi,%eax
c011161f:	75 df                	jne    c0111600 <idt_init+0x40>
c0111621:	8d 86 80 11 00 00    	lea    0x1180(%esi),%eax
c0111627:	0f 01 18             	lidtl  (%eax)
c011162a:	5b                   	pop    %ebx
c011162b:	5e                   	pop    %esi
c011162c:	5f                   	pop    %edi
c011162d:	c3                   	ret
c011162e:	66 90                	xchg   %ax,%ax

c0111630 <idt_set_gate>:
c0111630:	e8 cf 09 00 00       	call   c0112004 <__x86.get_pc_thunk.ax>
c0111635:	05 cb 29 00 00       	add    $0x29cb,%eax
c011163a:	0f b6 4c 24 04       	movzbl 0x4(%esp),%ecx
c011163f:	8b 54 24 08          	mov    0x8(%esp),%edx
c0111643:	66 89 94 c8 90 11 00 	mov    %dx,0x1190(%eax,%ecx,8)
c011164a:	00 
c011164b:	8d 84 c8 90 11 00 00 	lea    0x1190(%eax,%ecx,8),%eax
c0111652:	b9 08 00 00 00       	mov    $0x8,%ecx
c0111657:	c1 ea 10             	shr    $0x10,%edx
c011165a:	66 89 48 02          	mov    %cx,0x2(%eax)
c011165e:	8b 4c 24 0c          	mov    0xc(%esp),%ecx
c0111662:	66 89 50 06          	mov    %dx,0x6(%eax)
c0111666:	88 48 05             	mov    %cl,0x5(%eax)
c0111669:	c6 40 04 00          	movb   $0x0,0x4(%eax)
c011166d:	c3                   	ret

c011166e <gdt_load>:
c011166e:	8b 44 24 04          	mov    0x4(%esp),%eax
c0111672:	0f 01 10             	lgdtl  (%eax)
c0111675:	b8 10 00 00 00       	mov    $0x10,%eax
c011167a:	8e d8                	mov    %eax,%ds
c011167c:	8e c0                	mov    %eax,%es
c011167e:	8e e0                	mov    %eax,%fs
c0111680:	8e e8                	mov    %eax,%gs
c0111682:	8e d0                	mov    %eax,%ss
c0111684:	ea 8b 16 11 c0 08 00 	ljmp   $0x8,$0xc011168b

c011168b <.longjmp>:
c011168b:	c3                   	ret

c011168c <idt_reload>:
c011168c:	55                   	push   %ebp
c011168d:	89 e5                	mov    %esp,%ebp
c011168f:	9c                   	pushf
c0111690:	0f 01 1f             	lidtl  (%edi)
c0111693:	fb                   	sti
c0111694:	9d                   	popf
c0111695:	5d                   	pop    %ebp
c0111696:	c3                   	ret
c0111697:	66 90                	xchg   %ax,%ax
c0111699:	66 90                	xchg   %ax,%ax
c011169b:	66 90                	xchg   %ax,%ax
c011169d:	66 90                	xchg   %ax,%ax
c011169f:	90                   	nop

c01116a0 <interrupt_handler>:
c01116a0:	55                   	push   %ebp
c01116a1:	57                   	push   %edi
c01116a2:	56                   	push   %esi
c01116a3:	53                   	push   %ebx
c01116a4:	e8 57 09 00 00       	call   c0112000 <__x86.get_pc_thunk.bx>
c01116a9:	81 c3 57 29 00 00    	add    $0x2957,%ebx
c01116af:	81 ec 88 00 00 00    	sub    $0x88,%esp
c01116b5:	6a 01                	push   $0x1
c01116b7:	e8 b4 f0 ff ff       	call   c0110770 <s_set_input_masked>
c01116bc:	8d 83 f0 e6 ff ff    	lea    -0x1910(%ebx),%eax
c01116c2:	89 04 24             	mov    %eax,(%esp)
c01116c5:	e8 96 ef ff ff       	call   c0110660 <s_puts>
c01116ca:	58                   	pop    %eax
c01116cb:	8b 84 24 9c 00 00 00 	mov    0x9c(%esp),%eax
c01116d2:	8b 40 24             	mov    0x24(%eax),%eax
c01116d5:	ff b4 83 c0 03 00 00 	push   0x3c0(%ebx,%eax,4)
c01116dc:	e8 7f ef ff ff       	call   c0110660 <s_puts>
c01116e1:	8d 83 18 e7 ff ff    	lea    -0x18e8(%ebx),%eax
c01116e7:	89 04 24             	mov    %eax,(%esp)
c01116ea:	e8 71 ef ff ff       	call   c0110660 <s_puts>
c01116ef:	8d 83 04 e7 ff ff    	lea    -0x18fc(%ebx),%eax
c01116f5:	89 04 24             	mov    %eax,(%esp)
c01116f8:	e8 63 ef ff ff       	call   c0110660 <s_puts>
c01116fd:	8b 84 24 a0 00 00 00 	mov    0xa0(%esp),%eax
c0111704:	c7 c7 20 40 11 c0    	mov    $0xc0114020,%edi
c011170a:	8b 40 0c             	mov    0xc(%eax),%eax
c011170d:	89 44 24 14          	mov    %eax,0x14(%esp)
c0111711:	8b 84 24 a0 00 00 00 	mov    0xa0(%esp),%eax
c0111718:	8b 70 2c             	mov    0x2c(%eax),%esi
c011171b:	8b 07                	mov    (%edi),%eax
c011171d:	89 44 24 1c          	mov    %eax,0x1c(%esp)
c0111721:	83 c4 10             	add    $0x10,%esp
c0111724:	8d 83 1b e7 ff ff    	lea    -0x18e5(%ebx),%eax
c011172a:	89 44 24 10          	mov    %eax,0x10(%esp)
c011172e:	8d 44 24 2d          	lea    0x2d(%esp),%eax
c0111732:	89 44 24 08          	mov    %eax,0x8(%esp)
c0111736:	8d 83 27 e7 ff ff    	lea    -0x18d9(%ebx),%eax
c011173c:	89 44 24 1c          	mov    %eax,0x1c(%esp)
c0111740:	8d 83 42 e7 ff ff    	lea    -0x18be(%ebx),%eax
c0111746:	89 44 24 14          	mov    %eax,0x14(%esp)
c011174a:	8d 83 3b e7 ff ff    	lea    -0x18c5(%ebx),%eax
c0111750:	89 44 24 18          	mov    %eax,0x18(%esp)
c0111754:	8d 74 26 00          	lea    0x0(%esi,%eiz,1),%esi
c0111758:	8b 4c 24 0c          	mov    0xc(%esp),%ecx
c011175c:	31 c0                	xor    %eax,%eax
c011175e:	89 ca                	mov    %ecx,%edx
c0111760:	83 f9 ff             	cmp    $0xffffffff,%ecx
c0111763:	74 1a                	je     c011177f <interrupt_handler+0xdf>
c0111765:	8d 76 00             	lea    0x0(%esi),%esi
c0111768:	89 d1                	mov    %edx,%ecx
c011176a:	89 c5                	mov    %eax,%ebp
c011176c:	83 c0 01             	add    $0x1,%eax
c011176f:	8b 14 c7             	mov    (%edi,%eax,8),%edx
c0111772:	39 f1                	cmp    %esi,%ecx
c0111774:	74 04                	je     c011177a <interrupt_handler+0xda>
c0111776:	39 d6                	cmp    %edx,%esi
c0111778:	72 66                	jb     c01117e0 <interrupt_handler+0x140>
c011177a:	83 fa ff             	cmp    $0xffffffff,%edx
c011177d:	75 e9                	jne    c0111768 <interrupt_handler+0xc8>
c011177f:	83 ec 0c             	sub    $0xc,%esp
c0111782:	ff 74 24 1c          	push   0x1c(%esp)
c0111786:	e8 d5 ee ff ff       	call   c0110660 <s_puts>
c011178b:	83 c4 0c             	add    $0xc,%esp
c011178e:	6a 10                	push   $0x10
c0111790:	ff 74 24 10          	push   0x10(%esp)
c0111794:	56                   	push   %esi
c0111795:	e8 f6 fc ff ff       	call   c0111490 <utoa>
c011179a:	89 04 24             	mov    %eax,(%esp)
c011179d:	e8 be ee ff ff       	call   c0110660 <s_puts>
c01117a2:	58                   	pop    %eax
c01117a3:	ff 74 24 28          	push   0x28(%esp)
c01117a7:	e8 b4 ee ff ff       	call   c0110660 <s_puts>
c01117ac:	83 c4 10             	add    $0x10,%esp
c01117af:	90                   	nop
c01117b0:	8b 84 24 90 00 00 00 	mov    0x90(%esp),%eax
c01117b7:	39 70 2c             	cmp    %esi,0x2c(%eax)
c01117ba:	74 0a                	je     c01117c6 <interrupt_handler+0x126>
c01117bc:	8b 44 24 04          	mov    0x4(%esp),%eax
c01117c0:	8b 00                	mov    (%eax),%eax
c01117c2:	89 44 24 04          	mov    %eax,0x4(%esp)
c01117c6:	8b 44 24 04          	mov    0x4(%esp),%eax
c01117ca:	85 c0                	test   %eax,%eax
c01117cc:	74 62                	je     c0111830 <interrupt_handler+0x190>
c01117ce:	8b 44 24 04          	mov    0x4(%esp),%eax
c01117d2:	8b 70 08             	mov    0x8(%eax),%esi
c01117d5:	eb 81                	jmp    c0111758 <interrupt_handler+0xb8>
c01117d7:	8d b4 26 00 00 00 00 	lea    0x0(%esi,%eiz,1),%esi
c01117de:	66 90                	xchg   %ax,%ax
c01117e0:	83 ec 0c             	sub    $0xc,%esp
c01117e3:	ff 74 24 1c          	push   0x1c(%esp)
c01117e7:	e8 74 ee ff ff       	call   c0110660 <s_puts>
c01117ec:	83 c4 0c             	add    $0xc,%esp
c01117ef:	6a 10                	push   $0x10
c01117f1:	ff 74 24 10          	push   0x10(%esp)
c01117f5:	56                   	push   %esi
c01117f6:	e8 95 fc ff ff       	call   c0111490 <utoa>
c01117fb:	89 04 24             	mov    %eax,(%esp)
c01117fe:	e8 5d ee ff ff       	call   c0110660 <s_puts>
c0111803:	5a                   	pop    %edx
c0111804:	ff 74 24 20          	push   0x20(%esp)
c0111808:	e8 53 ee ff ff       	call   c0110660 <s_puts>
c011180d:	59                   	pop    %ecx
c011180e:	ff 74 ef 04          	push   0x4(%edi,%ebp,8)
c0111812:	e8 49 ee ff ff       	call   c0110660 <s_puts>
c0111817:	58                   	pop    %eax
c0111818:	ff 74 24 24          	push   0x24(%esp)
c011181c:	e8 3f ee ff ff       	call   c0110660 <s_puts>
c0111821:	8d 04 ef             	lea    (%edi,%ebp,8),%eax
c0111824:	83 c4 10             	add    $0x10,%esp
c0111827:	85 c0                	test   %eax,%eax
c0111829:	75 85                	jne    c01117b0 <interrupt_handler+0x110>
c011182b:	e9 4f ff ff ff       	jmp    c011177f <interrupt_handler+0xdf>
c0111830:	83 ec 0c             	sub    $0xc,%esp
c0111833:	8d 83 e0 eb ff ff    	lea    -0x1420(%ebx),%eax
c0111839:	50                   	push   %eax
c011183a:	e8 21 ee ff ff       	call   c0110660 <s_puts>
c011183f:	83 c4 0c             	add    $0xc,%esp
c0111842:	6a 10                	push   $0x10
c0111844:	8b 7c 24 10          	mov    0x10(%esp),%edi
c0111848:	57                   	push   %edi
c0111849:	8b 84 24 9c 00 00 00 	mov    0x9c(%esp),%eax
c0111850:	ff 70 20             	push   0x20(%eax)
c0111853:	e8 38 fc ff ff       	call   c0111490 <utoa>
c0111858:	89 04 24             	mov    %eax,(%esp)
c011185b:	e8 00 ee ff ff       	call   c0110660 <s_puts>
c0111860:	8d 83 50 e7 ff ff    	lea    -0x18b0(%ebx),%eax
c0111866:	89 04 24             	mov    %eax,(%esp)
c0111869:	e8 f2 ed ff ff       	call   c0110660 <s_puts>
c011186e:	83 c4 0c             	add    $0xc,%esp
c0111871:	6a 10                	push   $0x10
c0111873:	57                   	push   %edi
c0111874:	8b 84 24 9c 00 00 00 	mov    0x9c(%esp),%eax
c011187b:	ff 70 14             	push   0x14(%eax)
c011187e:	e8 0d fc ff ff       	call   c0111490 <utoa>
c0111883:	89 04 24             	mov    %eax,(%esp)
c0111886:	e8 d5 ed ff ff       	call   c0110660 <s_puts>
c011188b:	8d 83 63 e7 ff ff    	lea    -0x189d(%ebx),%eax
c0111891:	89 04 24             	mov    %eax,(%esp)
c0111894:	e8 c7 ed ff ff       	call   c0110660 <s_puts>
c0111899:	83 c4 0c             	add    $0xc,%esp
c011189c:	6a 10                	push   $0x10
c011189e:	57                   	push   %edi
c011189f:	8b 84 24 9c 00 00 00 	mov    0x9c(%esp),%eax
c01118a6:	ff 70 1c             	push   0x1c(%eax)
c01118a9:	e8 e2 fb ff ff       	call   c0111490 <utoa>
c01118ae:	89 04 24             	mov    %eax,(%esp)
c01118b1:	e8 aa ed ff ff       	call   c0110660 <s_puts>
c01118b6:	8d 83 76 e7 ff ff    	lea    -0x188a(%ebx),%eax
c01118bc:	89 04 24             	mov    %eax,(%esp)
c01118bf:	e8 9c ed ff ff       	call   c0110660 <s_puts>
c01118c4:	83 c4 0c             	add    $0xc,%esp
c01118c7:	6a 10                	push   $0x10
c01118c9:	57                   	push   %edi
c01118ca:	8b 84 24 9c 00 00 00 	mov    0x9c(%esp),%eax
c01118d1:	ff 70 18             	push   0x18(%eax)
c01118d4:	e8 b7 fb ff ff       	call   c0111490 <utoa>
c01118d9:	89 04 24             	mov    %eax,(%esp)
c01118dc:	e8 7f ed ff ff       	call   c0110660 <s_puts>
c01118e1:	8d 83 89 e7 ff ff    	lea    -0x1877(%ebx),%eax
c01118e7:	89 04 24             	mov    %eax,(%esp)
c01118ea:	e8 71 ed ff ff       	call   c0110660 <s_puts>
c01118ef:	83 c4 0c             	add    $0xc,%esp
c01118f2:	6a 10                	push   $0x10
c01118f4:	57                   	push   %edi
c01118f5:	8b 84 24 9c 00 00 00 	mov    0x9c(%esp),%eax
c01118fc:	ff 70 04             	push   0x4(%eax)
c01118ff:	e8 8c fb ff ff       	call   c0111490 <utoa>
c0111904:	89 04 24             	mov    %eax,(%esp)
c0111907:	e8 54 ed ff ff       	call   c0110660 <s_puts>
c011190c:	8d 83 9c e7 ff ff    	lea    -0x1864(%ebx),%eax
c0111912:	89 04 24             	mov    %eax,(%esp)
c0111915:	e8 46 ed ff ff       	call   c0110660 <s_puts>
c011191a:	83 c4 0c             	add    $0xc,%esp
c011191d:	6a 10                	push   $0x10
c011191f:	57                   	push   %edi
c0111920:	8b 84 24 9c 00 00 00 	mov    0x9c(%esp),%eax
c0111927:	ff 70 08             	push   0x8(%eax)
c011192a:	e8 61 fb ff ff       	call   c0111490 <utoa>
c011192f:	89 04 24             	mov    %eax,(%esp)
c0111932:	e8 29 ed ff ff       	call   c0110660 <s_puts>
c0111937:	8d 83 af e7 ff ff    	lea    -0x1851(%ebx),%eax
c011193d:	89 04 24             	mov    %eax,(%esp)
c0111940:	e8 1b ed ff ff       	call   c0110660 <s_puts>
c0111945:	83 c4 0c             	add    $0xc,%esp
c0111948:	6a 10                	push   $0x10
c011194a:	57                   	push   %edi
c011194b:	8b 84 24 9c 00 00 00 	mov    0x9c(%esp),%eax
c0111952:	ff 70 10             	push   0x10(%eax)
c0111955:	e8 36 fb ff ff       	call   c0111490 <utoa>
c011195a:	89 04 24             	mov    %eax,(%esp)
c011195d:	e8 fe ec ff ff       	call   c0110660 <s_puts>
c0111962:	8d 83 c5 e7 ff ff    	lea    -0x183b(%ebx),%eax
c0111968:	89 04 24             	mov    %eax,(%esp)
c011196b:	e8 f0 ec ff ff       	call   c0110660 <s_puts>
c0111970:	83 c4 0c             	add    $0xc,%esp
c0111973:	6a 10                	push   $0x10
c0111975:	57                   	push   %edi
c0111976:	8b 84 24 9c 00 00 00 	mov    0x9c(%esp),%eax
c011197d:	ff 70 0c             	push   0xc(%eax)
c0111980:	e8 0b fb ff ff       	call   c0111490 <utoa>
c0111985:	89 04 24             	mov    %eax,(%esp)
c0111988:	e8 d3 ec ff ff       	call   c0110660 <s_puts>
c011198d:	8d 83 d8 e7 ff ff    	lea    -0x1828(%ebx),%eax
c0111993:	89 04 24             	mov    %eax,(%esp)
c0111996:	e8 c5 ec ff ff       	call   c0110660 <s_puts>
c011199b:	83 c4 0c             	add    $0xc,%esp
c011199e:	6a 10                	push   $0x10
c01119a0:	57                   	push   %edi
c01119a1:	8b 84 24 9c 00 00 00 	mov    0x9c(%esp),%eax
c01119a8:	ff 70 34             	push   0x34(%eax)
c01119ab:	e8 e0 fa ff ff       	call   c0111490 <utoa>
c01119b0:	89 04 24             	mov    %eax,(%esp)
c01119b3:	e8 a8 ec ff ff       	call   c0110660 <s_puts>
c01119b8:	8d 83 ee e7 ff ff    	lea    -0x1812(%ebx),%eax
c01119be:	89 04 24             	mov    %eax,(%esp)
c01119c1:	e8 9a ec ff ff       	call   c0110660 <s_puts>
c01119c6:	83 c4 0c             	add    $0xc,%esp
c01119c9:	6a 02                	push   $0x2
c01119cb:	57                   	push   %edi
c01119cc:	8b 84 24 9c 00 00 00 	mov    0x9c(%esp),%eax
c01119d3:	ff 70 28             	push   0x28(%eax)
c01119d6:	e8 b5 fa ff ff       	call   c0111490 <utoa>
c01119db:	89 04 24             	mov    %eax,(%esp)
c01119de:	e8 7d ec ff ff       	call   c0110660 <s_puts>
c01119e3:	8d 83 0b e8 ff ff    	lea    -0x17f5(%ebx),%eax
c01119e9:	89 04 24             	mov    %eax,(%esp)
c01119ec:	e8 6f ec ff ff       	call   c0110660 <s_puts>
c01119f1:	8b 84 24 a0 00 00 00 	mov    0xa0(%esp),%eax
c01119f8:	83 c4 10             	add    $0x10,%esp
c01119fb:	83 78 24 0e          	cmpl   $0xe,0x24(%eax)
c01119ff:	74 0b                	je     c0111a0c <interrupt_handler+0x36c>
c0111a01:	8d b4 26 00 00 00 00 	lea    0x0(%esi,%eiz,1),%esi
c0111a08:	fa                   	cli
c0111a09:	f4                   	hlt
c0111a0a:	eb fc                	jmp    c0111a08 <interrupt_handler+0x368>
c0111a0c:	8b 84 24 90 00 00 00 	mov    0x90(%esp),%eax
c0111a13:	83 ec 0c             	sub    $0xc,%esp
c0111a16:	8b 70 28             	mov    0x28(%eax),%esi
c0111a19:	8d 83 0c ec ff ff    	lea    -0x13f4(%ebx),%eax
c0111a1f:	50                   	push   %eax
c0111a20:	e8 3b ec ff ff       	call   c0110660 <s_puts>
c0111a25:	83 c4 10             	add    $0x10,%esp
c0111a28:	f7 c6 01 00 00 00    	test   $0x1,%esi
c0111a2e:	0f 85 01 01 00 00    	jne    c0111b35 <interrupt_handler+0x495>
c0111a34:	8d 83 88 e6 ff ff    	lea    -0x1978(%ebx),%eax
c0111a3a:	83 ec 0c             	sub    $0xc,%esp
c0111a3d:	50                   	push   %eax
c0111a3e:	e8 1d ec ff ff       	call   c0110660 <s_puts>
c0111a43:	8d 83 11 e8 ff ff    	lea    -0x17ef(%ebx),%eax
c0111a49:	89 04 24             	mov    %eax,(%esp)
c0111a4c:	e8 0f ec ff ff       	call   c0110660 <s_puts>
c0111a51:	83 c4 10             	add    $0x10,%esp
c0111a54:	f7 c6 02 00 00 00    	test   $0x2,%esi
c0111a5a:	0f 84 fe 00 00 00    	je     c0111b5e <interrupt_handler+0x4be>
c0111a60:	8d 83 98 e6 ff ff    	lea    -0x1968(%ebx),%eax
c0111a66:	83 ec 0c             	sub    $0xc,%esp
c0111a69:	50                   	push   %eax
c0111a6a:	e8 f1 eb ff ff       	call   c0110660 <s_puts>
c0111a6f:	8d 83 1f e8 ff ff    	lea    -0x17e1(%ebx),%eax
c0111a75:	89 04 24             	mov    %eax,(%esp)
c0111a78:	e8 e3 eb ff ff       	call   c0110660 <s_puts>
c0111a7d:	83 c4 10             	add    $0x10,%esp
c0111a80:	f7 c6 04 00 00 00    	test   $0x4,%esi
c0111a86:	0f 84 c7 00 00 00    	je     c0111b53 <interrupt_handler+0x4b3>
c0111a8c:	8d 83 b5 e6 ff ff    	lea    -0x194b(%ebx),%eax
c0111a92:	83 ec 0c             	sub    $0xc,%esp
c0111a95:	50                   	push   %eax
c0111a96:	e8 c5 eb ff ff       	call   c0110660 <s_puts>
c0111a9b:	8d 83 2d e8 ff ff    	lea    -0x17d3(%ebx),%eax
c0111aa1:	89 04 24             	mov    %eax,(%esp)
c0111aa4:	e8 b7 eb ff ff       	call   c0110660 <s_puts>
c0111aa9:	83 c4 10             	add    $0x10,%esp
c0111aac:	f7 c6 08 00 00 00    	test   $0x8,%esi
c0111ab2:	0f 84 88 00 00 00    	je     c0111b40 <interrupt_handler+0x4a0>
c0111ab8:	8d ab d3 e6 ff ff    	lea    -0x192d(%ebx),%ebp
c0111abe:	8d bb e1 e6 ff ff    	lea    -0x191f(%ebx),%edi
c0111ac4:	89 e8                	mov    %ebp,%eax
c0111ac6:	83 ec 0c             	sub    $0xc,%esp
c0111ac9:	50                   	push   %eax
c0111aca:	e8 91 eb ff ff       	call   c0110660 <s_puts>
c0111acf:	8d 83 3e e8 ff ff    	lea    -0x17c2(%ebx),%eax
c0111ad5:	89 04 24             	mov    %eax,(%esp)
c0111ad8:	e8 83 eb ff ff       	call   c0110660 <s_puts>
c0111add:	f7 c6 10 00 00 00    	test   $0x10,%esi
c0111ae3:	89 e8                	mov    %ebp,%eax
c0111ae5:	0f 44 c7             	cmove  %edi,%eax
c0111ae8:	89 04 24             	mov    %eax,(%esp)
c0111aeb:	e8 70 eb ff ff       	call   c0110660 <s_puts>
c0111af0:	8d 83 4f e8 ff ff    	lea    -0x17b1(%ebx),%eax
c0111af6:	89 04 24             	mov    %eax,(%esp)
c0111af9:	e8 62 eb ff ff       	call   c0110660 <s_puts>
c0111afe:	f7 c6 20 00 00 00    	test   $0x20,%esi
c0111b04:	89 e8                	mov    %ebp,%eax
c0111b06:	0f 44 c7             	cmove  %edi,%eax
c0111b09:	89 04 24             	mov    %eax,(%esp)
c0111b0c:	e8 4f eb ff ff       	call   c0110660 <s_puts>
c0111b11:	8d 83 5b e8 ff ff    	lea    -0x17a5(%ebx),%eax
c0111b17:	89 04 24             	mov    %eax,(%esp)
c0111b1a:	e8 41 eb ff ff       	call   c0110660 <s_puts>
c0111b1f:	83 e6 40             	and    $0x40,%esi
c0111b22:	0f 45 fd             	cmovne %ebp,%edi
c0111b25:	89 3c 24             	mov    %edi,(%esp)
c0111b28:	e8 33 eb ff ff       	call   c0110660 <s_puts>
c0111b2d:	83 c4 10             	add    $0x10,%esp
c0111b30:	e9 d3 fe ff ff       	jmp    c0111a08 <interrupt_handler+0x368>
c0111b35:	8d 83 74 e6 ff ff    	lea    -0x198c(%ebx),%eax
c0111b3b:	e9 fa fe ff ff       	jmp    c0111a3a <interrupt_handler+0x39a>
c0111b40:	8d bb e1 e6 ff ff    	lea    -0x191f(%ebx),%edi
c0111b46:	8d ab d3 e6 ff ff    	lea    -0x192d(%ebx),%ebp
c0111b4c:	89 f8                	mov    %edi,%eax
c0111b4e:	e9 73 ff ff ff       	jmp    c0111ac6 <interrupt_handler+0x426>
c0111b53:	8d 83 c3 e6 ff ff    	lea    -0x193d(%ebx),%eax
c0111b59:	e9 34 ff ff ff       	jmp    c0111a92 <interrupt_handler+0x3f2>
c0111b5e:	8d 83 a7 e6 ff ff    	lea    -0x1959(%ebx),%eax
c0111b64:	e9 fd fe ff ff       	jmp    c0111a66 <interrupt_handler+0x3c6>
c0111b69:	66 90                	xchg   %ax,%ax
c0111b6b:	66 90                	xchg   %ax,%ax
c0111b6d:	66 90                	xchg   %ax,%ax
c0111b6f:	90                   	nop

c0111b70 <gdt_init>:
c0111b70:	53                   	push   %ebx
c0111b71:	b8 17 00 00 00       	mov    $0x17,%eax
c0111b76:	e8 85 04 00 00       	call   c0112000 <__x86.get_pc_thunk.bx>
c0111b7b:	81 c3 85 24 00 00    	add    $0x2485,%ebx
c0111b81:	83 ec 14             	sub    $0x14,%esp
c0111b84:	66 89 83 90 19 00 00 	mov    %ax,0x1990(%ebx)
c0111b8b:	8d 83 98 19 00 00    	lea    0x1998(%ebx),%eax
c0111b91:	89 83 92 19 00 00    	mov    %eax,0x1992(%ebx)
c0111b97:	8d 83 90 19 00 00    	lea    0x1990(%ebx),%eax
c0111b9d:	50                   	push   %eax
c0111b9e:	c7 83 98 19 00 00 00 	movl   $0x0,0x1998(%ebx)
c0111ba5:	00 00 00 
c0111ba8:	c7 83 9c 19 00 00 00 	movl   $0x0,0x199c(%ebx)
c0111baf:	00 00 00 
c0111bb2:	c7 83 a0 19 00 00 ff 	movl   $0xffff,0x19a0(%ebx)
c0111bb9:	ff 00 00 
c0111bbc:	c7 83 a4 19 00 00 00 	movl   $0xcf9a00,0x19a4(%ebx)
c0111bc3:	9a cf 00 
c0111bc6:	c7 83 a8 19 00 00 ff 	movl   $0xffff,0x19a8(%ebx)
c0111bcd:	ff 00 00 
c0111bd0:	c7 83 ac 19 00 00 00 	movl   $0xcf9200,0x19ac(%ebx)
c0111bd7:	92 cf 00 
c0111bda:	e8 8f fa ff ff       	call   c011166e <gdt_load>
c0111bdf:	83 c4 18             	add    $0x18,%esp
c0111be2:	5b                   	pop    %ebx
c0111be3:	c3                   	ret

c0111be4 <isr_common_stub>:
c0111be4:	60                   	pusha
c0111be5:	66 8c d8             	mov    %ds,%ax
c0111be8:	50                   	push   %eax
c0111be9:	66 b8 10 00          	mov    $0x10,%ax
c0111bed:	8e d8                	mov    %eax,%ds
c0111bef:	8e c0                	mov    %eax,%es
c0111bf1:	8e e0                	mov    %eax,%fs
c0111bf3:	8e e8                	mov    %eax,%gs
c0111bf5:	8e d0                	mov    %eax,%ss
c0111bf7:	54                   	push   %esp
c0111bf8:	fc                   	cld
c0111bf9:	e8 a2 fa ff ff       	call   c01116a0 <interrupt_handler>
c0111bfe:	58                   	pop    %eax
c0111bff:	58                   	pop    %eax
c0111c00:	8e d8                	mov    %eax,%ds
c0111c02:	8e c0                	mov    %eax,%es
c0111c04:	8e e0                	mov    %eax,%fs
c0111c06:	8e e8                	mov    %eax,%gs
c0111c08:	8e d0                	mov    %eax,%ss
c0111c0a:	61                   	popa
c0111c0b:	83 c4 08             	add    $0x8,%esp
c0111c0e:	cf                   	iret

c0111c0f <isr_stub_0>:
c0111c0f:	6a 00                	push   $0x0
c0111c11:	6a 00                	push   $0x0
c0111c13:	eb cf                	jmp    c0111be4 <isr_common_stub>

c0111c15 <isr_stub_1>:
c0111c15:	6a 00                	push   $0x0
c0111c17:	6a 01                	push   $0x1
c0111c19:	eb c9                	jmp    c0111be4 <isr_common_stub>

c0111c1b <isr_stub_2>:
c0111c1b:	6a 00                	push   $0x0
c0111c1d:	6a 02                	push   $0x2
c0111c1f:	eb c3                	jmp    c0111be4 <isr_common_stub>

c0111c21 <isr_stub_3>:
c0111c21:	6a 00                	push   $0x0
c0111c23:	6a 03                	push   $0x3
c0111c25:	eb bd                	jmp    c0111be4 <isr_common_stub>

c0111c27 <isr_stub_4>:
c0111c27:	6a 00                	push   $0x0
c0111c29:	6a 04                	push   $0x4
c0111c2b:	eb b7                	jmp    c0111be4 <isr_common_stub>

c0111c2d <isr_stub_5>:
c0111c2d:	6a 00                	push   $0x0
c0111c2f:	6a 05                	push   $0x5
c0111c31:	eb b1                	jmp    c0111be4 <isr_common_stub>

c0111c33 <isr_stub_6>:
c0111c33:	6a 00                	push   $0x0
c0111c35:	6a 06                	push   $0x6
c0111c37:	eb ab                	jmp    c0111be4 <isr_common_stub>

c0111c39 <isr_stub_7>:
c0111c39:	6a 00                	push   $0x0
c0111c3b:	6a 07                	push   $0x7
c0111c3d:	eb a5                	jmp    c0111be4 <isr_common_stub>

c0111c3f <isr_stub_8>:
c0111c3f:	6a 08                	push   $0x8
c0111c41:	eb a1                	jmp    c0111be4 <isr_common_stub>

c0111c43 <isr_stub_9>:
c0111c43:	6a 00                	push   $0x0
c0111c45:	6a 09                	push   $0x9
c0111c47:	eb 9b                	jmp    c0111be4 <isr_common_stub>

c0111c49 <isr_stub_10>:
c0111c49:	6a 0a                	push   $0xa
c0111c4b:	eb 97                	jmp    c0111be4 <isr_common_stub>

c0111c4d <isr_stub_11>:
c0111c4d:	6a 0b                	push   $0xb
c0111c4f:	eb 93                	jmp    c0111be4 <isr_common_stub>

c0111c51 <isr_stub_12>:
c0111c51:	6a 0c                	push   $0xc
c0111c53:	eb 8f                	jmp    c0111be4 <isr_common_stub>

c0111c55 <isr_stub_13>:
c0111c55:	6a 0d                	push   $0xd
c0111c57:	eb 8b                	jmp    c0111be4 <isr_common_stub>

c0111c59 <isr_stub_14>:
c0111c59:	6a 0e                	push   $0xe
c0111c5b:	eb 87                	jmp    c0111be4 <isr_common_stub>

c0111c5d <isr_stub_15>:
c0111c5d:	6a 00                	push   $0x0
c0111c5f:	6a 0f                	push   $0xf
c0111c61:	eb 81                	jmp    c0111be4 <isr_common_stub>

c0111c63 <isr_stub_16>:
c0111c63:	6a 00                	push   $0x0
c0111c65:	6a 10                	push   $0x10
c0111c67:	e9 78 ff ff ff       	jmp    c0111be4 <isr_common_stub>

c0111c6c <isr_stub_17>:
c0111c6c:	6a 11                	push   $0x11
c0111c6e:	e9 71 ff ff ff       	jmp    c0111be4 <isr_common_stub>

c0111c73 <isr_stub_18>:
c0111c73:	6a 00                	push   $0x0
c0111c75:	6a 12                	push   $0x12
c0111c77:	e9 68 ff ff ff       	jmp    c0111be4 <isr_common_stub>

c0111c7c <isr_stub_19>:
c0111c7c:	6a 00                	push   $0x0
c0111c7e:	6a 13                	push   $0x13
c0111c80:	e9 5f ff ff ff       	jmp    c0111be4 <isr_common_stub>

c0111c85 <isr_stub_20>:
c0111c85:	6a 00                	push   $0x0
c0111c87:	6a 14                	push   $0x14
c0111c89:	e9 56 ff ff ff       	jmp    c0111be4 <isr_common_stub>

c0111c8e <isr_stub_21>:
c0111c8e:	6a 00                	push   $0x0
c0111c90:	6a 15                	push   $0x15
c0111c92:	e9 4d ff ff ff       	jmp    c0111be4 <isr_common_stub>

c0111c97 <isr_stub_22>:
c0111c97:	6a 00                	push   $0x0
c0111c99:	6a 16                	push   $0x16
c0111c9b:	e9 44 ff ff ff       	jmp    c0111be4 <isr_common_stub>

c0111ca0 <isr_stub_23>:
c0111ca0:	6a 00                	push   $0x0
c0111ca2:	6a 17                	push   $0x17
c0111ca4:	e9 3b ff ff ff       	jmp    c0111be4 <isr_common_stub>

c0111ca9 <isr_stub_24>:
c0111ca9:	6a 00                	push   $0x0
c0111cab:	6a 18                	push   $0x18
c0111cad:	e9 32 ff ff ff       	jmp    c0111be4 <isr_common_stub>

c0111cb2 <isr_stub_25>:
c0111cb2:	6a 00                	push   $0x0
c0111cb4:	6a 19                	push   $0x19
c0111cb6:	e9 29 ff ff ff       	jmp    c0111be4 <isr_common_stub>

c0111cbb <isr_stub_26>:
c0111cbb:	6a 00                	push   $0x0
c0111cbd:	6a 1a                	push   $0x1a
c0111cbf:	e9 20 ff ff ff       	jmp    c0111be4 <isr_common_stub>

c0111cc4 <isr_stub_27>:
c0111cc4:	6a 00                	push   $0x0
c0111cc6:	6a 1b                	push   $0x1b
c0111cc8:	e9 17 ff ff ff       	jmp    c0111be4 <isr_common_stub>

c0111ccd <isr_stub_28>:
c0111ccd:	6a 00                	push   $0x0
c0111ccf:	6a 1c                	push   $0x1c
c0111cd1:	e9 0e ff ff ff       	jmp    c0111be4 <isr_common_stub>

c0111cd6 <isr_stub_29>:
c0111cd6:	6a 00                	push   $0x0
c0111cd8:	6a 1d                	push   $0x1d
c0111cda:	e9 05 ff ff ff       	jmp    c0111be4 <isr_common_stub>

c0111cdf <isr_stub_30>:
c0111cdf:	6a 1e                	push   $0x1e
c0111ce1:	e9 fe fe ff ff       	jmp    c0111be4 <isr_common_stub>

c0111ce6 <isr_stub_31>:
c0111ce6:	6a 00                	push   $0x0
c0111ce8:	6a 1f                	push   $0x1f
c0111cea:	e9 f5 fe ff ff       	jmp    c0111be4 <isr_common_stub>

c0111cef <isr_stub_table>:
c0111cef:	0f 1c 11             	nopl   (%ecx)
c0111cf2:	c0 15 1c 11 c0 1b 1c 	rclb   $0x1c,0x1bc0111c
c0111cf9:	11 c0                	adc    %eax,%eax
c0111cfb:	21 1c 11             	and    %ebx,(%ecx,%edx,1)
c0111cfe:	c0 27 1c             	shlb   $0x1c,(%edi)
c0111d01:	11 c0                	adc    %eax,%eax
c0111d03:	2d 1c 11 c0 33       	sub    $0x33c0111c,%eax
c0111d08:	1c 11                	sbb    $0x11,%al
c0111d0a:	c0 39 1c             	sarb   $0x1c,(%ecx)
c0111d0d:	11 c0                	adc    %eax,%eax
c0111d0f:	3f                   	aas
c0111d10:	1c 11                	sbb    $0x11,%al
c0111d12:	c0 43 1c 11          	rolb   $0x11,0x1c(%ebx)
c0111d16:	c0 49 1c 11          	rorb   $0x11,0x1c(%ecx)
c0111d1a:	c0 4d 1c 11          	rorb   $0x11,0x1c(%ebp)
c0111d1e:	c0 51 1c 11          	rclb   $0x11,0x1c(%ecx)
c0111d22:	c0 55 1c 11          	rclb   $0x11,0x1c(%ebp)
c0111d26:	c0 59 1c 11          	rcrb   $0x11,0x1c(%ecx)
c0111d2a:	c0 5d 1c 11          	rcrb   $0x11,0x1c(%ebp)
c0111d2e:	c0 63 1c 11          	shlb   $0x11,0x1c(%ebx)
c0111d32:	c0 6c 1c 11 c0       	shrb   $0xc0,0x11(%esp,%ebx,1)
c0111d37:	73 1c                	jae    c0111d55 <isr_stub_table+0x66>
c0111d39:	11 c0                	adc    %eax,%eax
c0111d3b:	7c 1c                	jl     c0111d59 <isr_stub_table+0x6a>
c0111d3d:	11 c0                	adc    %eax,%eax
c0111d3f:	85 1c 11             	test   %ebx,(%ecx,%edx,1)
c0111d42:	c0 8e 1c 11 c0 97 1c 	rorb   $0x1c,-0x683feee4(%esi)
c0111d49:	11 c0                	adc    %eax,%eax
c0111d4b:	a0 1c 11 c0 a9       	mov    0xa9c0111c,%al
c0111d50:	1c 11                	sbb    $0x11,%al
c0111d52:	c0 b2 1c 11 c0 bb 1c 	shlb   $0x1c,-0x443feee4(%edx)
c0111d59:	11 c0                	adc    %eax,%eax
c0111d5b:	c4 1c 11             	les    (%ecx,%edx,1),%ebx
c0111d5e:	c0 cd 1c             	ror    $0x1c,%ch
c0111d61:	11 c0                	adc    %eax,%eax
c0111d63:	d6                   	(bad)
c0111d64:	1c 11                	sbb    $0x11,%al
c0111d66:	c0 df 1c             	rcr    $0x1c,%bh
c0111d69:	11 c0                	adc    %eax,%eax
c0111d6b:	e6 1c                	out    %al,$0x1c
c0111d6d:	11 c0                	adc    %eax,%eax
c0111d6f:	66 90                	xchg   %ax,%ax
c0111d71:	66 90                	xchg   %ax,%ax
c0111d73:	66 90                	xchg   %ax,%ax
c0111d75:	66 90                	xchg   %ax,%ax
c0111d77:	66 90                	xchg   %ax,%ax
c0111d79:	66 90                	xchg   %ax,%ax
c0111d7b:	66 90                	xchg   %ax,%ax
c0111d7d:	66 90                	xchg   %ax,%ax
c0111d7f:	66 90                	xchg   %ax,%ax
c0111d81:	66 90                	xchg   %ax,%ax
c0111d83:	66 90                	xchg   %ax,%ax
c0111d85:	66 90                	xchg   %ax,%ax
c0111d87:	66 90                	xchg   %ax,%ax
c0111d89:	66 90                	xchg   %ax,%ax
c0111d8b:	66 90                	xchg   %ax,%ax
c0111d8d:	66 90                	xchg   %ax,%ax
c0111d8f:	66 90                	xchg   %ax,%ax
c0111d91:	66 90                	xchg   %ax,%ax
c0111d93:	66 90                	xchg   %ax,%ax
c0111d95:	66 90                	xchg   %ax,%ax
c0111d97:	66 90                	xchg   %ax,%ax
c0111d99:	66 90                	xchg   %ax,%ax
c0111d9b:	66 90                	xchg   %ax,%ax
c0111d9d:	66 90                	xchg   %ax,%ax
c0111d9f:	66 90                	xchg   %ax,%ax
c0111da1:	66 90                	xchg   %ax,%ax
c0111da3:	66 90                	xchg   %ax,%ax
c0111da5:	66 90                	xchg   %ax,%ax
c0111da7:	66 90                	xchg   %ax,%ax
c0111da9:	66 90                	xchg   %ax,%ax
c0111dab:	66 90                	xchg   %ax,%ax
c0111dad:	66 90                	xchg   %ax,%ax
c0111daf:	66 90                	xchg   %ax,%ax
c0111db1:	66 90                	xchg   %ax,%ax
c0111db3:	66 90                	xchg   %ax,%ax
c0111db5:	66 90                	xchg   %ax,%ax
c0111db7:	66 90                	xchg   %ax,%ax
c0111db9:	66 90                	xchg   %ax,%ax
c0111dbb:	66 90                	xchg   %ax,%ax
c0111dbd:	66 90                	xchg   %ax,%ax
c0111dbf:	66 90                	xchg   %ax,%ax
c0111dc1:	66 90                	xchg   %ax,%ax
c0111dc3:	66 90                	xchg   %ax,%ax
c0111dc5:	66 90                	xchg   %ax,%ax
c0111dc7:	66 90                	xchg   %ax,%ax
c0111dc9:	66 90                	xchg   %ax,%ax
c0111dcb:	66 90                	xchg   %ax,%ax
c0111dcd:	66 90                	xchg   %ax,%ax
c0111dcf:	66 90                	xchg   %ax,%ax
c0111dd1:	66 90                	xchg   %ax,%ax
c0111dd3:	66 90                	xchg   %ax,%ax
c0111dd5:	66 90                	xchg   %ax,%ax
c0111dd7:	66 90                	xchg   %ax,%ax
c0111dd9:	66 90                	xchg   %ax,%ax
c0111ddb:	66 90                	xchg   %ax,%ax
c0111ddd:	66 90                	xchg   %ax,%ax
c0111ddf:	66 90                	xchg   %ax,%ax
c0111de1:	66 90                	xchg   %ax,%ax
c0111de3:	66 90                	xchg   %ax,%ax
c0111de5:	66 90                	xchg   %ax,%ax
c0111de7:	66 90                	xchg   %ax,%ax
c0111de9:	66 90                	xchg   %ax,%ax
c0111deb:	66 90                	xchg   %ax,%ax
c0111ded:	66 90                	xchg   %ax,%ax
c0111def:	66 90                	xchg   %ax,%ax
c0111df1:	66 90                	xchg   %ax,%ax
c0111df3:	66 90                	xchg   %ax,%ax
c0111df5:	66 90                	xchg   %ax,%ax
c0111df7:	66 90                	xchg   %ax,%ax
c0111df9:	66 90                	xchg   %ax,%ax
c0111dfb:	66 90                	xchg   %ax,%ax
c0111dfd:	66 90                	xchg   %ax,%ax
c0111dff:	66 90                	xchg   %ax,%ax
c0111e01:	66 90                	xchg   %ax,%ax
c0111e03:	66 90                	xchg   %ax,%ax
c0111e05:	66 90                	xchg   %ax,%ax
c0111e07:	66 90                	xchg   %ax,%ax
c0111e09:	66 90                	xchg   %ax,%ax
c0111e0b:	66 90                	xchg   %ax,%ax
c0111e0d:	66 90                	xchg   %ax,%ax
c0111e0f:	66 90                	xchg   %ax,%ax
c0111e11:	66 90                	xchg   %ax,%ax
c0111e13:	66 90                	xchg   %ax,%ax
c0111e15:	66 90                	xchg   %ax,%ax
c0111e17:	66 90                	xchg   %ax,%ax
c0111e19:	66 90                	xchg   %ax,%ax
c0111e1b:	66 90                	xchg   %ax,%ax
c0111e1d:	66 90                	xchg   %ax,%ax
c0111e1f:	66 90                	xchg   %ax,%ax
c0111e21:	66 90                	xchg   %ax,%ax
c0111e23:	66 90                	xchg   %ax,%ax
c0111e25:	66 90                	xchg   %ax,%ax
c0111e27:	66 90                	xchg   %ax,%ax
c0111e29:	66 90                	xchg   %ax,%ax
c0111e2b:	66 90                	xchg   %ax,%ax
c0111e2d:	66 90                	xchg   %ax,%ax
c0111e2f:	66 90                	xchg   %ax,%ax
c0111e31:	66 90                	xchg   %ax,%ax
c0111e33:	66 90                	xchg   %ax,%ax
c0111e35:	66 90                	xchg   %ax,%ax
c0111e37:	66 90                	xchg   %ax,%ax
c0111e39:	66 90                	xchg   %ax,%ax
c0111e3b:	66 90                	xchg   %ax,%ax
c0111e3d:	66 90                	xchg   %ax,%ax
c0111e3f:	66 90                	xchg   %ax,%ax
c0111e41:	66 90                	xchg   %ax,%ax
c0111e43:	66 90                	xchg   %ax,%ax
c0111e45:	66 90                	xchg   %ax,%ax
c0111e47:	66 90                	xchg   %ax,%ax
c0111e49:	66 90                	xchg   %ax,%ax
c0111e4b:	66 90                	xchg   %ax,%ax
c0111e4d:	66 90                	xchg   %ax,%ax
c0111e4f:	66 90                	xchg   %ax,%ax
c0111e51:	66 90                	xchg   %ax,%ax
c0111e53:	66 90                	xchg   %ax,%ax
c0111e55:	66 90                	xchg   %ax,%ax
c0111e57:	66 90                	xchg   %ax,%ax
c0111e59:	66 90                	xchg   %ax,%ax
c0111e5b:	66 90                	xchg   %ax,%ax
c0111e5d:	66 90                	xchg   %ax,%ax
c0111e5f:	66 90                	xchg   %ax,%ax
c0111e61:	66 90                	xchg   %ax,%ax
c0111e63:	66 90                	xchg   %ax,%ax
c0111e65:	66 90                	xchg   %ax,%ax
c0111e67:	66 90                	xchg   %ax,%ax
c0111e69:	66 90                	xchg   %ax,%ax
c0111e6b:	66 90                	xchg   %ax,%ax
c0111e6d:	66 90                	xchg   %ax,%ax
c0111e6f:	66 90                	xchg   %ax,%ax
c0111e71:	66 90                	xchg   %ax,%ax
c0111e73:	66 90                	xchg   %ax,%ax
c0111e75:	66 90                	xchg   %ax,%ax
c0111e77:	66 90                	xchg   %ax,%ax
c0111e79:	66 90                	xchg   %ax,%ax
c0111e7b:	66 90                	xchg   %ax,%ax
c0111e7d:	66 90                	xchg   %ax,%ax
c0111e7f:	66 90                	xchg   %ax,%ax
c0111e81:	66 90                	xchg   %ax,%ax
c0111e83:	66 90                	xchg   %ax,%ax
c0111e85:	66 90                	xchg   %ax,%ax
c0111e87:	66 90                	xchg   %ax,%ax
c0111e89:	66 90                	xchg   %ax,%ax
c0111e8b:	66 90                	xchg   %ax,%ax
c0111e8d:	66 90                	xchg   %ax,%ax
c0111e8f:	66 90                	xchg   %ax,%ax
c0111e91:	66 90                	xchg   %ax,%ax
c0111e93:	66 90                	xchg   %ax,%ax
c0111e95:	66 90                	xchg   %ax,%ax
c0111e97:	66 90                	xchg   %ax,%ax
c0111e99:	66 90                	xchg   %ax,%ax
c0111e9b:	66 90                	xchg   %ax,%ax
c0111e9d:	66 90                	xchg   %ax,%ax
c0111e9f:	66 90                	xchg   %ax,%ax
c0111ea1:	66 90                	xchg   %ax,%ax
c0111ea3:	66 90                	xchg   %ax,%ax
c0111ea5:	66 90                	xchg   %ax,%ax
c0111ea7:	66 90                	xchg   %ax,%ax
c0111ea9:	66 90                	xchg   %ax,%ax
c0111eab:	66 90                	xchg   %ax,%ax
c0111ead:	66 90                	xchg   %ax,%ax
c0111eaf:	66 90                	xchg   %ax,%ax
c0111eb1:	66 90                	xchg   %ax,%ax
c0111eb3:	66 90                	xchg   %ax,%ax
c0111eb5:	66 90                	xchg   %ax,%ax
c0111eb7:	66 90                	xchg   %ax,%ax
c0111eb9:	66 90                	xchg   %ax,%ax
c0111ebb:	66 90                	xchg   %ax,%ax
c0111ebd:	66 90                	xchg   %ax,%ax
c0111ebf:	66 90                	xchg   %ax,%ax
c0111ec1:	66 90                	xchg   %ax,%ax
c0111ec3:	66 90                	xchg   %ax,%ax
c0111ec5:	66 90                	xchg   %ax,%ax
c0111ec7:	66 90                	xchg   %ax,%ax
c0111ec9:	66 90                	xchg   %ax,%ax
c0111ecb:	66 90                	xchg   %ax,%ax
c0111ecd:	66 90                	xchg   %ax,%ax
c0111ecf:	66 90                	xchg   %ax,%ax
c0111ed1:	66 90                	xchg   %ax,%ax
c0111ed3:	66 90                	xchg   %ax,%ax
c0111ed5:	66 90                	xchg   %ax,%ax
c0111ed7:	66 90                	xchg   %ax,%ax
c0111ed9:	66 90                	xchg   %ax,%ax
c0111edb:	66 90                	xchg   %ax,%ax
c0111edd:	66 90                	xchg   %ax,%ax
c0111edf:	66 90                	xchg   %ax,%ax
c0111ee1:	66 90                	xchg   %ax,%ax
c0111ee3:	66 90                	xchg   %ax,%ax
c0111ee5:	66 90                	xchg   %ax,%ax
c0111ee7:	66 90                	xchg   %ax,%ax
c0111ee9:	66 90                	xchg   %ax,%ax
c0111eeb:	66 90                	xchg   %ax,%ax
c0111eed:	66 90                	xchg   %ax,%ax
c0111eef:	66 90                	xchg   %ax,%ax
c0111ef1:	66 90                	xchg   %ax,%ax
c0111ef3:	66 90                	xchg   %ax,%ax
c0111ef5:	66 90                	xchg   %ax,%ax
c0111ef7:	66 90                	xchg   %ax,%ax
c0111ef9:	66 90                	xchg   %ax,%ax
c0111efb:	66 90                	xchg   %ax,%ax
c0111efd:	66 90                	xchg   %ax,%ax
c0111eff:	66 90                	xchg   %ax,%ax
c0111f01:	66 90                	xchg   %ax,%ax
c0111f03:	66 90                	xchg   %ax,%ax
c0111f05:	66 90                	xchg   %ax,%ax
c0111f07:	66 90                	xchg   %ax,%ax
c0111f09:	66 90                	xchg   %ax,%ax
c0111f0b:	66 90                	xchg   %ax,%ax
c0111f0d:	66 90                	xchg   %ax,%ax
c0111f0f:	66 90                	xchg   %ax,%ax
c0111f11:	66 90                	xchg   %ax,%ax
c0111f13:	66 90                	xchg   %ax,%ax
c0111f15:	66 90                	xchg   %ax,%ax
c0111f17:	66 90                	xchg   %ax,%ax
c0111f19:	66 90                	xchg   %ax,%ax
c0111f1b:	66 90                	xchg   %ax,%ax
c0111f1d:	66 90                	xchg   %ax,%ax
c0111f1f:	66 90                	xchg   %ax,%ax
c0111f21:	66 90                	xchg   %ax,%ax
c0111f23:	66 90                	xchg   %ax,%ax
c0111f25:	66 90                	xchg   %ax,%ax
c0111f27:	66 90                	xchg   %ax,%ax
c0111f29:	66 90                	xchg   %ax,%ax
c0111f2b:	66 90                	xchg   %ax,%ax
c0111f2d:	66 90                	xchg   %ax,%ax
c0111f2f:	66 90                	xchg   %ax,%ax
c0111f31:	66 90                	xchg   %ax,%ax
c0111f33:	66 90                	xchg   %ax,%ax
c0111f35:	66 90                	xchg   %ax,%ax
c0111f37:	66 90                	xchg   %ax,%ax
c0111f39:	66 90                	xchg   %ax,%ax
c0111f3b:	66 90                	xchg   %ax,%ax
c0111f3d:	66 90                	xchg   %ax,%ax
c0111f3f:	66 90                	xchg   %ax,%ax
c0111f41:	66 90                	xchg   %ax,%ax
c0111f43:	66 90                	xchg   %ax,%ax
c0111f45:	66 90                	xchg   %ax,%ax
c0111f47:	66 90                	xchg   %ax,%ax
c0111f49:	66 90                	xchg   %ax,%ax
c0111f4b:	66 90                	xchg   %ax,%ax
c0111f4d:	66 90                	xchg   %ax,%ax
c0111f4f:	66 90                	xchg   %ax,%ax
c0111f51:	66 90                	xchg   %ax,%ax
c0111f53:	66 90                	xchg   %ax,%ax
c0111f55:	66 90                	xchg   %ax,%ax
c0111f57:	66 90                	xchg   %ax,%ax
c0111f59:	66 90                	xchg   %ax,%ax
c0111f5b:	66 90                	xchg   %ax,%ax
c0111f5d:	66 90                	xchg   %ax,%ax
c0111f5f:	66 90                	xchg   %ax,%ax
c0111f61:	66 90                	xchg   %ax,%ax
c0111f63:	66 90                	xchg   %ax,%ax
c0111f65:	66 90                	xchg   %ax,%ax
c0111f67:	66 90                	xchg   %ax,%ax
c0111f69:	66 90                	xchg   %ax,%ax
c0111f6b:	66 90                	xchg   %ax,%ax
c0111f6d:	66 90                	xchg   %ax,%ax
c0111f6f:	66 90                	xchg   %ax,%ax
c0111f71:	66 90                	xchg   %ax,%ax
c0111f73:	66 90                	xchg   %ax,%ax
c0111f75:	66 90                	xchg   %ax,%ax
c0111f77:	66 90                	xchg   %ax,%ax
c0111f79:	66 90                	xchg   %ax,%ax
c0111f7b:	66 90                	xchg   %ax,%ax
c0111f7d:	66 90                	xchg   %ax,%ax
c0111f7f:	66 90                	xchg   %ax,%ax
c0111f81:	66 90                	xchg   %ax,%ax
c0111f83:	66 90                	xchg   %ax,%ax
c0111f85:	66 90                	xchg   %ax,%ax
c0111f87:	66 90                	xchg   %ax,%ax
c0111f89:	66 90                	xchg   %ax,%ax
c0111f8b:	66 90                	xchg   %ax,%ax
c0111f8d:	66 90                	xchg   %ax,%ax
c0111f8f:	66 90                	xchg   %ax,%ax
c0111f91:	66 90                	xchg   %ax,%ax
c0111f93:	66 90                	xchg   %ax,%ax
c0111f95:	66 90                	xchg   %ax,%ax
c0111f97:	66 90                	xchg   %ax,%ax
c0111f99:	66 90                	xchg   %ax,%ax
c0111f9b:	66 90                	xchg   %ax,%ax
c0111f9d:	66 90                	xchg   %ax,%ax
c0111f9f:	66 90                	xchg   %ax,%ax
c0111fa1:	66 90                	xchg   %ax,%ax
c0111fa3:	66 90                	xchg   %ax,%ax
c0111fa5:	66 90                	xchg   %ax,%ax
c0111fa7:	66 90                	xchg   %ax,%ax
c0111fa9:	66 90                	xchg   %ax,%ax
c0111fab:	66 90                	xchg   %ax,%ax
c0111fad:	66 90                	xchg   %ax,%ax
c0111faf:	66 90                	xchg   %ax,%ax
c0111fb1:	66 90                	xchg   %ax,%ax
c0111fb3:	66 90                	xchg   %ax,%ax
c0111fb5:	66 90                	xchg   %ax,%ax
c0111fb7:	66 90                	xchg   %ax,%ax
c0111fb9:	66 90                	xchg   %ax,%ax
c0111fbb:	66 90                	xchg   %ax,%ax
c0111fbd:	66 90                	xchg   %ax,%ax
c0111fbf:	66 90                	xchg   %ax,%ax
c0111fc1:	66 90                	xchg   %ax,%ax
c0111fc3:	66 90                	xchg   %ax,%ax
c0111fc5:	66 90                	xchg   %ax,%ax
c0111fc7:	66 90                	xchg   %ax,%ax
c0111fc9:	66 90                	xchg   %ax,%ax
c0111fcb:	66 90                	xchg   %ax,%ax
c0111fcd:	66 90                	xchg   %ax,%ax
c0111fcf:	66 90                	xchg   %ax,%ax
c0111fd1:	66 90                	xchg   %ax,%ax
c0111fd3:	66 90                	xchg   %ax,%ax
c0111fd5:	66 90                	xchg   %ax,%ax
c0111fd7:	66 90                	xchg   %ax,%ax
c0111fd9:	66 90                	xchg   %ax,%ax
c0111fdb:	66 90                	xchg   %ax,%ax
c0111fdd:	66 90                	xchg   %ax,%ax
c0111fdf:	66 90                	xchg   %ax,%ax
c0111fe1:	66 90                	xchg   %ax,%ax
c0111fe3:	66 90                	xchg   %ax,%ax
c0111fe5:	66 90                	xchg   %ax,%ax
c0111fe7:	66 90                	xchg   %ax,%ax
c0111fe9:	66 90                	xchg   %ax,%ax
c0111feb:	66 90                	xchg   %ax,%ax
c0111fed:	66 90                	xchg   %ax,%ax
c0111fef:	66 90                	xchg   %ax,%ax
c0111ff1:	66 90                	xchg   %ax,%ax
c0111ff3:	66 90                	xchg   %ax,%ax
c0111ff5:	66 90                	xchg   %ax,%ax
c0111ff7:	66 90                	xchg   %ax,%ax
c0111ff9:	66 90                	xchg   %ax,%ax
c0111ffb:	66 90                	xchg   %ax,%ax
c0111ffd:	66 90                	xchg   %ax,%ax
c0111fff:	90                   	nop

Disassembly of section .text.__x86.get_pc_thunk.bx:

c0112000 <__x86.get_pc_thunk.bx>:
c0112000:	8b 1c 24             	mov    (%esp),%ebx
c0112003:	c3                   	ret

Disassembly of section .text.__x86.get_pc_thunk.ax:

c0112004 <__x86.get_pc_thunk.ax>:
c0112004:	8b 04 24             	mov    (%esp),%eax
c0112007:	c3                   	ret

Disassembly of section .text.__x86.get_pc_thunk.dx:

c0112008 <__x86.get_pc_thunk.dx>:
c0112008:	8b 14 24             	mov    (%esp),%edx
c011200b:	c3                   	ret

Disassembly of section .text.__x86.get_pc_thunk.cx:

c011200c <__x86.get_pc_thunk.cx>:
c011200c:	8b 0c 24             	mov    (%esp),%ecx
c011200f:	c3                   	ret

Disassembly of section .text.__x86.get_pc_thunk.si:

c0112010 <__x86.get_pc_thunk.si>:
c0112010:	8b 34 24             	mov    (%esp),%esi
c0112013:	c3                   	ret

Disassembly of section .rodata:

c0112014 <.rodata>:
c0112014:	50                   	push   %eax
c0112015:	68 79 73 69 63       	push   $0x63697379
c011201a:	61                   	popa
c011201b:	6c                   	insb   (%dx),%es:(%edi)
c011201c:	20 6d 65             	and    %ch,0x65(%ebp)
c011201f:	6d                   	insl   (%dx),%es:(%edi)
c0112020:	6f                   	outsl  %ds:(%esi),(%dx)
c0112021:	72 79                	jb     c011209c <__x86.get_pc_thunk.si+0x8c>
c0112023:	20 6d 61             	and    %ch,0x61(%ebp)
c0112026:	70 3a                	jo     c0112062 <__x86.get_pc_thunk.si+0x52>
c0112028:	0a 00                	or     (%eax),%al
c011202a:	41                   	inc    %ecx
c011202b:	76 61                	jbe    c011208e <__x86.get_pc_thunk.si+0x7e>
c011202d:	69 6c 61 62 6c 65 3a 	imul   $0x203a656c,0x62(%ecx,%eiz,2),%ebp
c0112034:	20 
c0112035:	7c 00                	jl     c0112037 <__x86.get_pc_thunk.si+0x27>
c0112037:	20 61 64             	and    %ah,0x64(%ecx)
c011203a:	64 72 3a             	fs jb  c0112077 <__x86.get_pc_thunk.si+0x67>
c011203d:	20 25 78 00 20 6c    	and    %ah,0x6c200078
c0112043:	65 6e                	outsb  %gs:(%esi),(%dx)
c0112045:	67 74 68             	addr16 je c01120b0 <__x86.get_pc_thunk.si+0xa0>
c0112048:	3a 20                	cmp    (%eax),%ah
c011204a:	25 78 00 49 6e       	and    $0x6e490078,%eax
c011204f:	73 74                	jae    c01120c5 <__x86.get_pc_thunk.si+0xb5>
c0112051:	61                   	popa
c0112052:	6c                   	insb   (%dx),%es:(%edi)
c0112053:	6c                   	insb   (%dx),%es:(%edi)
c0112054:	65 64 20 6d 65       	gs and %ch,%fs:0x65(%ebp)
c0112059:	6d                   	insl   (%dx),%es:(%edi)
c011205a:	6f                   	outsl  %ds:(%esi),(%dx)
c011205b:	72 79                	jb     c01120d6 <__x86.get_pc_thunk.si+0xc6>
c011205d:	20 73 69             	and    %dh,0x69(%ebx)
c0112060:	7a 65                	jp     c01120c7 <__x86.get_pc_thunk.si+0xb7>
c0112062:	3a 20                	cmp    (%eax),%ah
c0112064:	25 64 20 4b 69       	and    $0x694b2064,%eax
c0112069:	42                   	inc    %edx
c011206a:	00 3d 20 25 64 20    	add    %bh,0x20642520
c0112070:	4d                   	dec    %ebp
c0112071:	42                   	inc    %edx
c0112072:	0a 00                	or     (%eax),%al
c0112074:	41                   	inc    %ecx
c0112075:	76 61                	jbe    c01120d8 <__x86.get_pc_thunk.si+0xc8>
c0112077:	69 6c 61 62 6c 65 20 	imul   $0x6d20656c,0x62(%ecx,%eiz,2),%ebp
c011207e:	6d 
c011207f:	65 6d                	gs insl (%dx),%es:(%edi)
c0112081:	6f                   	outsl  %ds:(%esi),(%dx)
c0112082:	72 79                	jb     c01120fd <__x86.get_pc_thunk.si+0xed>
c0112084:	20 73 69             	and    %dh,0x69(%ebx)
c0112087:	7a 65                	jp     c01120ee <__x86.get_pc_thunk.si+0xde>
c0112089:	3a 20                	cmp    (%eax),%ah
c011208b:	25 64 20 4b 69       	and    $0x694b2064,%eax
c0112090:	42                   	inc    %edx
c0112091:	00 4f 78             	add    %cl,0x78(%edi)
c0112094:	00 5b 45             	add    %bl,0x45(%ebx)
c0112097:	52                   	push   %edx
c0112098:	52                   	push   %edx
c0112099:	4f                   	dec    %edi
c011209a:	52                   	push   %edx
c011209b:	5d                   	pop    %ebp
c011209c:	20 00                	and    %al,(%eax)
c011209e:	0a 45 41             	or     0x41(%ebp),%al
c01120a1:	58                   	pop    %eax
c01120a2:	20 3a                	and    %bh,(%edx)
c01120a4:	2d 00 0a 09 53       	sub    $0x53090a00,%eax
c01120a9:	74 65                	je     c0112110 <__x86.get_pc_thunk.si+0x100>
c01120ab:	70 70                	jo     c011211d <__x86.get_pc_thunk.si+0x10d>
c01120ad:	69 6e 67 20 49 44 3a 	imul   $0x3a444920,0x67(%esi),%ebp
c01120b4:	20 00                	and    %al,(%eax)
c01120b6:	0a 09                	or     (%ecx),%cl
c01120b8:	4d                   	dec    %ebp
c01120b9:	6f                   	outsl  %ds:(%esi),(%dx)
c01120ba:	64 65 6c             	fs gs insb (%dx),%es:(%edi)
c01120bd:	3a 20                	cmp    (%eax),%ah
c01120bf:	00 0a                	add    %cl,(%edx)
c01120c1:	09 46 61             	or     %eax,0x61(%esi)
c01120c4:	6d                   	insl   (%dx),%es:(%edi)
c01120c5:	69 6c 79 20 49 44 3a 	imul   $0x203a4449,0x20(%ecx,%edi,2),%ebp
c01120cc:	20 
c01120cd:	00 0a                	add    %cl,(%edx)
c01120cf:	09 50 72             	or     %edx,0x72(%eax)
c01120d2:	6f                   	outsl  %ds:(%esi),(%dx)
c01120d3:	63 65 73             	arpl   %sp,0x73(%ebp)
c01120d6:	73 6f                	jae    c0112147 <__x86.get_pc_thunk.si+0x137>
c01120d8:	72 20                	jb     c01120fa <__x86.get_pc_thunk.si+0xea>
c01120da:	54                   	push   %esp
c01120db:	79 70                	jns    c011214d <__x86.get_pc_thunk.si+0x13d>
c01120dd:	65 3a 20             	cmp    %gs:(%eax),%ah
c01120e0:	00 0a                	add    %cl,(%edx)
c01120e2:	09 45 78             	or     %eax,0x78(%ebp)
c01120e5:	74 65                	je     c011214c <__x86.get_pc_thunk.si+0x13c>
c01120e7:	6e                   	outsb  %ds:(%esi),(%dx)
c01120e8:	64 65 64 20 4d 6f    	fs gs and %cl,%fs:0x6f(%ebp)
c01120ee:	64 65 6c             	fs gs insb (%dx),%es:(%edi)
c01120f1:	20 49 44             	and    %cl,0x44(%ecx)
c01120f4:	3a 20                	cmp    (%eax),%ah
c01120f6:	00 0a                	add    %cl,(%edx)
c01120f8:	09 45 78             	or     %eax,0x78(%ebp)
c01120fb:	74 65                	je     c0112162 <__x86.get_pc_thunk.si+0x152>
c01120fd:	6e                   	outsb  %ds:(%esi),(%dx)
c01120fe:	64 65 64 20 46 61    	fs gs and %al,%fs:0x61(%esi)
c0112104:	6d                   	insl   (%dx),%es:(%edi)
c0112105:	69 6c 79 20 49 44 3a 	imul   $0x203a4449,0x20(%ecx,%edi,2),%ebp
c011210c:	20 
c011210d:	00 0a                	add    %cl,(%edx)
c011210f:	45                   	inc    %ebp
c0112110:	42                   	inc    %edx
c0112111:	58                   	pop    %eax
c0112112:	20 3a                	and    %bh,(%edx)
c0112114:	2d 00 0a 09 42       	sub    $0x42090a00,%eax
c0112119:	72 61                	jb     c011217c <__x86.get_pc_thunk.si+0x16c>
c011211b:	6e                   	outsb  %ds:(%esi),(%dx)
c011211c:	64 20 49 6e          	and    %cl,%fs:0x6e(%ecx)
c0112120:	64 65 78 3a          	fs gs js c011215e <__x86.get_pc_thunk.si+0x14e>
c0112124:	20 00                	and    %al,(%eax)
c0112126:	0a 09                	or     (%ecx),%cl
c0112128:	43                   	inc    %ebx
c0112129:	61                   	popa
c011212a:	63 68 65             	arpl   %bp,0x65(%eax)
c011212d:	20 4c 69 6e          	and    %cl,0x6e(%ecx,%ebp,2)
c0112131:	65 20 53 69          	and    %dl,%gs:0x69(%ebx)
c0112135:	7a 65                	jp     c011219c <__x86.get_pc_thunk.si+0x18c>
c0112137:	3a 20                	cmp    (%eax),%ah
c0112139:	00 0a                	add    %cl,(%edx)
c011213b:	09 49 6e             	or     %ecx,0x6e(%ecx)
c011213e:	69 74 69 61 6c 20 41 	imul   $0x5041206c,0x61(%ecx,%ebp,2),%esi
c0112145:	50 
c0112146:	49                   	dec    %ecx
c0112147:	43                   	inc    %ebx
c0112148:	20 49 44             	and    %cl,0x44(%ecx)
c011214b:	3a 20                	cmp    (%eax),%ah
c011214d:	00 0a                	add    %cl,(%edx)
c011214f:	45                   	inc    %ebp
c0112150:	44                   	inc    %esp
c0112151:	58                   	pop    %eax
c0112152:	20 3a                	and    %bh,(%edx)
c0112154:	2d 00 0a 09 62       	sub    $0x62090a00,%eax
c0112159:	69 74 2d 33 31 20 5b 	imul   $0x205b2031,0x33(%ebp,%ebp,1),%esi
c0112160:	20 
c0112161:	00 20                	add    %ah,(%eax)
c0112163:	5d                   	pop    %ebp
c0112164:	20 62 69             	and    %ah,0x69(%edx)
c0112167:	74 2d                	je     c0112196 <__x86.get_pc_thunk.si+0x186>
c0112169:	30 00                	xor    %al,(%eax)
c011216b:	0a 09                	or     (%ecx),%cl
c011216d:	42                   	inc    %edx
c011216e:	69 74 20 30 20 3a 20 	imul   $0x46203a20,0x30(%eax,%eiz,1),%esi
c0112175:	46 
c0112176:	50                   	push   %eax
c0112177:	55                   	push   %ebp
c0112178:	2d 78 38 37 20       	sub    $0x20373878,%eax
c011217d:	46                   	inc    %esi
c011217e:	50                   	push   %eax
c011217f:	55                   	push   %ebp
c0112180:	20 6f 6e             	and    %ch,0x6e(%edi)
c0112183:	20 43 68             	and    %al,0x68(%ebx)
c0112186:	69 70 00 43 50 55 49 	imul   $0x49555043,0x0(%eax),%esi
c011218d:	44                   	inc    %esp
c011218e:	20 45 41             	and    %al,0x41(%ebp)
c0112191:	58                   	pop    %eax
c0112192:	20 3d 20 30 31 48    	and    %bh,0x48313020
c0112198:	00 6d 62             	add    %ch,0x62(%ebp)
c011219b:	69 3a 20 25 70 0a    	imul   $0xa702520,(%edx),%edi
c01121a1:	00 48 65             	add    %cl,0x65(%eax)
c01121a4:	6c                   	insb   (%dx),%es:(%edi)
c01121a5:	6c                   	insb   (%dx),%es:(%edi)
c01121a6:	6f                   	outsl  %ds:(%esi),(%dx)
c01121a7:	2c 20                	sub    $0x20,%al
c01121a9:	77 6f                	ja     c011221a <__x86.get_pc_thunk.si+0x20a>
c01121ab:	72 6c                	jb     c0112219 <__x86.get_pc_thunk.si+0x209>
c01121ad:	64 21 0a             	and    %ecx,%fs:(%edx)
c01121b0:	00 6b 65             	add    %ch,0x65(%ebx)
c01121b3:	72 6e                	jb     c0112223 <__x86.get_pc_thunk.si+0x213>
c01121b5:	65 6c                	gs insb (%dx),%es:(%edi)
c01121b7:	5f                   	pop    %edi
c01121b8:	70 68                	jo     c0112222 <__x86.get_pc_thunk.si+0x212>
c01121ba:	79 73                	jns    c011222f <__x86.get_pc_thunk.si+0x21f>
c01121bc:	5f                   	pop    %edi
c01121bd:	73 74                	jae    c0112233 <__x86.get_pc_thunk.si+0x223>
c01121bf:	61                   	popa
c01121c0:	72 74                	jb     c0112236 <__x86.get_pc_thunk.si+0x226>
c01121c2:	00 6b 65             	add    %ch,0x65(%ebx)
c01121c5:	72 6e                	jb     c0112235 <__x86.get_pc_thunk.si+0x225>
c01121c7:	65 6c                	gs insb (%dx),%es:(%edi)
c01121c9:	5f                   	pop    %edi
c01121ca:	76 69                	jbe    c0112235 <__x86.get_pc_thunk.si+0x225>
c01121cc:	72 74                	jb     c0112242 <__x86.get_pc_thunk.si+0x232>
c01121ce:	5f                   	pop    %edi
c01121cf:	73 74                	jae    c0112245 <__x86.get_pc_thunk.si+0x235>
c01121d1:	61                   	popa
c01121d2:	72 74                	jb     c0112248 <__x86.get_pc_thunk.si+0x238>
c01121d4:	00 73 74             	add    %dh,0x74(%ebx)
c01121d7:	61                   	popa
c01121d8:	63 6b 5f             	arpl   %bp,0x5f(%ebx)
c01121db:	62 6f 74             	bound  %ebp,0x74(%edi)
c01121de:	74 6f                	je     c011224f <__x86.get_pc_thunk.si+0x23f>
c01121e0:	6d                   	insl   (%dx),%es:(%edi)
c01121e1:	00 70 6d             	add    %dh,0x6d(%eax)
c01121e4:	6d                   	insl   (%dx),%es:(%edi)
c01121e5:	5f                   	pop    %edi
c01121e6:	70 61                	jo     c0112249 <__x86.get_pc_thunk.si+0x239>
c01121e8:	72 73                	jb     c011225d <__x86.get_pc_thunk.si+0x24d>
c01121ea:	65 5f                	gs pop %edi
c01121ec:	6d                   	insl   (%dx),%es:(%edi)
c01121ed:	65 6d                	gs insl (%dx),%es:(%edi)
c01121ef:	6f                   	outsl  %ds:(%esi),(%dx)
c01121f0:	72 79                	jb     c011226b <__x86.get_pc_thunk.si+0x25b>
c01121f2:	5f                   	pop    %edi
c01121f3:	6d                   	insl   (%dx),%es:(%edi)
c01121f4:	61                   	popa
c01121f5:	70 00                	jo     c01121f7 <__x86.get_pc_thunk.si+0x1e7>
c01121f7:	73 74                	jae    c011226d <__x86.get_pc_thunk.si+0x25d>
c01121f9:	61                   	popa
c01121fa:	63 6b 5f             	arpl   %bp,0x5f(%ebx)
c01121fd:	74 6f                	je     c011226e <__x86.get_pc_thunk.si+0x25e>
c01121ff:	70 00                	jo     c0112201 <__x86.get_pc_thunk.si+0x1f1>
c0112201:	66 69 78 5f 63 73    	imul   $0x7363,0x5f(%eax),%di
c0112207:	00 68 6c             	add    %ch,0x6c(%eax)
c011220a:	74 5f                	je     c011226b <__x86.get_pc_thunk.si+0x25b>
c011220c:	6c                   	insb   (%dx),%es:(%edi)
c011220d:	6f                   	outsl  %ds:(%esi),(%dx)
c011220e:	6f                   	outsl  %ds:(%esi),(%dx)
c011220f:	70 00                	jo     c0112211 <__x86.get_pc_thunk.si+0x201>
c0112211:	67 64 74 5f          	addr16 fs je c0112274 <__x86.get_pc_thunk.si+0x264>
c0112215:	73 74                	jae    c011228b <__x86.get_pc_thunk.si+0x27b>
c0112217:	61                   	popa
c0112218:	72 74                	jb     c011228e <__x86.get_pc_thunk.si+0x27e>
c011221a:	00 67 64             	add    %ah,0x64(%edi)
c011221d:	74 5f                	je     c011227e <__x86.get_pc_thunk.si+0x26e>
c011221f:	63 6f 64             	arpl   %bp,0x64(%edi)
c0112222:	65 00 67 64          	add    %ah,%gs:0x64(%edi)
c0112226:	74 5f                	je     c0112287 <__x86.get_pc_thunk.si+0x277>
c0112228:	64 61                	fs popa
c011222a:	74 61                	je     c011228d <__x86.get_pc_thunk.si+0x27d>
c011222c:	00 67 64             	add    %ah,0x64(%edi)
c011222f:	74 5f                	je     c0112290 <__x86.get_pc_thunk.si+0x280>
c0112231:	64 65 73 63          	fs gs jae c0112298 <__x86.get_pc_thunk.si+0x288>
c0112235:	72 69                	jb     c01122a0 <__x86.get_pc_thunk.si+0x290>
c0112237:	70 74                	jo     c01122ad <__x86.get_pc_thunk.si+0x29d>
c0112239:	6f                   	outsl  %ds:(%esi),(%dx)
c011223a:	72 00                	jb     c011223c <__x86.get_pc_thunk.si+0x22c>
c011223c:	67 64 74 5f          	addr16 fs je c011229f <__x86.get_pc_thunk.si+0x28f>
c0112240:	65 6e                	outsb  %gs:(%esi),(%dx)
c0112242:	64 00 73 5f          	add    %dh,%fs:0x5f(%ebx)
c0112246:	69 6e 69 74 00 73 5f 	imul   $0x5f730074,0x69(%esi),%ebp
c011224d:	70 72                	jo     c01122c1 <__x86.get_pc_thunk.si+0x2b1>
c011224f:	69 6e 74 66 00 2e 4c 	imul   $0x4c2e0066,0x74(%esi),%ebp
c0112256:	31 38                	xor    %edi,(%eax)
c0112258:	00 2e                	add    %ch,(%esi)
c011225a:	4c                   	dec    %esp
c011225b:	31 30                	xor    %esi,(%eax)
c011225d:	00 2e                	add    %ch,(%esi)
c011225f:	4c                   	dec    %esp
c0112260:	31 32                	xor    %esi,(%edx)
c0112262:	00 2e                	add    %ch,(%esi)
c0112264:	4c                   	dec    %esp
c0112265:	31 33                	xor    %esi,(%ebx)
c0112267:	00 2e                	add    %ch,(%esi)
c0112269:	4c                   	dec    %esp
c011226a:	31 34 00             	xor    %esi,(%eax,%eax,1)
c011226d:	2e 4c                	cs dec %esp
c011226f:	31 35 00 2e 4c 31    	xor    %esi,0x314c2e00
c0112275:	36 00 73 5f          	add    %dh,%ss:0x5f(%ebx)
c0112279:	70 75                	jo     c01122f0 <__x86.get_pc_thunk.si+0x2e0>
c011227b:	74 73                	je     c01122f0 <__x86.get_pc_thunk.si+0x2e0>
c011227d:	00 73 5f             	add    %dh,0x5f(%ebx)
c0112280:	70 75                	jo     c01122f7 <__x86.get_pc_thunk.si+0x2e7>
c0112282:	74 65                	je     c01122e9 <__x86.get_pc_thunk.si+0x2d9>
c0112284:	00 73 5f             	add    %dh,0x5f(%ebx)
c0112287:	73 65                	jae    c01122ee <__x86.get_pc_thunk.si+0x2de>
c0112289:	74 5f                	je     c01122ea <__x86.get_pc_thunk.si+0x2da>
c011228b:	69 6e 70 75 74 5f 6d 	imul   $0x6d5f7475,0x70(%esi),%ebp
c0112292:	61                   	popa
c0112293:	73 6b                	jae    c0112300 <__x86.get_pc_thunk.si+0x2f0>
c0112295:	65 64 00 70 69       	gs add %dh,%fs:0x69(%eax)
c011229a:	63 5f 72             	arpl   %bx,0x72(%edi)
c011229d:	65 6d                	gs insl (%dx),%es:(%edi)
c011229f:	61                   	popa
c01122a0:	70 00                	jo     c01122a2 <__x86.get_pc_thunk.si+0x292>
c01122a2:	70 69                	jo     c011230d <__x86.get_pc_thunk.si+0x2fd>
c01122a4:	63 5f 64             	arpl   %bx,0x64(%edi)
c01122a7:	69 73 61 62 6c 65 00 	imul   $0x656c62,0x61(%ebx),%esi
c01122ae:	70 69                	jo     c0112319 <__x86.get_pc_thunk.si+0x309>
c01122b0:	63 5f 6d             	arpl   %bx,0x6d(%edi)
c01122b3:	61                   	popa
c01122b4:	73 6b                	jae    c0112321 <__x86.get_pc_thunk.si+0x311>
c01122b6:	00 70 69             	add    %dh,0x69(%eax)
c01122b9:	63 5f 75             	arpl   %bx,0x75(%edi)
c01122bc:	6e                   	outsb  %ds:(%esi),(%dx)
c01122bd:	6d                   	insl   (%dx),%es:(%edi)
c01122be:	61                   	popa
c01122bf:	73 6b                	jae    c011232c <__x86.get_pc_thunk.si+0x31c>
c01122c1:	00 70 69             	add    %dh,0x69(%eax)
c01122c4:	63 5f 73             	arpl   %bx,0x73(%edi)
c01122c7:	65 6e                	outsb  %gs:(%esi),(%dx)
c01122c9:	64 5f                	fs pop %edi
c01122cb:	65 6f                	outsl  %gs:(%esi),(%dx)
c01122cd:	69 00 70 61 67 69    	imul   $0x69676170,(%eax),%eax
c01122d3:	6e                   	outsb  %ds:(%esi),(%dx)
c01122d4:	67 5f                	addr16 pop %edi
c01122d6:	6d                   	insl   (%dx),%es:(%edi)
c01122d7:	61                   	popa
c01122d8:	70 5f                	jo     c0112339 <__x86.get_pc_thunk.si+0x329>
c01122da:	70 61                	jo     c011233d <__x86.get_pc_thunk.si+0x32d>
c01122dc:	67 65 00 70 61       	add    %dh,%gs:0x61(%bx,%si)
c01122e1:	67 69 6e 67 5f 75 6e 	imul   $0x6d6e755f,0x67(%bp),%ebp
c01122e8:	6d 
c01122e9:	61                   	popa
c01122ea:	70 5f                	jo     c011234b <__x86.get_pc_thunk.si+0x33b>
c01122ec:	70 61                	jo     c011234f <__x86.get_pc_thunk.si+0x33f>
c01122ee:	67 65 00 70 61       	add    %dh,%gs:0x61(%bx,%si)
c01122f3:	67 69 6e 67 5f 72 65 	imul   $0x6d65725f,0x67(%bp),%ebp
c01122fa:	6d 
c01122fb:	61                   	popa
c01122fc:	70 5f                	jo     c011235d <__x86.get_pc_thunk.si+0x34d>
c01122fe:	70 61                	jo     c0112361 <__x86.get_pc_thunk.si+0x351>
c0112300:	67 65 00 70 61       	add    %dh,%gs:0x61(%bx,%si)
c0112305:	67 69 6e 67 5f 77 61 	imul   $0x6c61775f,0x67(%bp),%ebp
c011230c:	6c 
c011230d:	6b 5f 70 61          	imul   $0x61,0x70(%edi),%ebx
c0112311:	67 65 00 70 61       	add    %dh,%gs:0x61(%bx,%si)
c0112316:	67 69 6e 67 5f 65 64 	imul   $0x6964655f,0x67(%bp),%ebp
c011231d:	69 
c011231e:	74 5f                	je     c011237f <__x86.get_pc_thunk.si+0x36f>
c0112320:	70 61                	jo     c0112383 <__x86.get_pc_thunk.si+0x373>
c0112322:	67 65 00 70 61       	add    %dh,%gs:0x61(%bx,%si)
c0112327:	67 69 6e 67 5f 6c 6f 	imul   $0x616f6c5f,0x67(%bp),%ebp
c011232e:	61 
c011232f:	64 5f                	fs pop %edi
c0112331:	70 6d                	jo     c01123a0 <__x86.get_pc_thunk.si+0x390>
c0112333:	6c                   	insb   (%dx),%es:(%edi)
c0112334:	34 00                	xor    $0x0,%al
c0112336:	70 61                	jo     c0112399 <__x86.get_pc_thunk.si+0x389>
c0112338:	67 69 6e 67 5f 67 65 	imul   $0x7465675f,0x67(%bp),%ebp
c011233f:	74 
c0112340:	5f                   	pop    %edi
c0112341:	70 6d                	jo     c01123b0 <__x86.get_pc_thunk.si+0x3a0>
c0112343:	6c                   	insb   (%dx),%es:(%edi)
c0112344:	34 00                	xor    $0x0,%al
c0112346:	70 72                	jo     c01123ba <__x86.get_pc_thunk.si+0x3aa>
c0112348:	69 6e 74 5f 65 61 78 	imul   $0x7861655f,0x74(%esi),%ebp
c011234f:	00 70 72             	add    %dh,0x72(%eax)
c0112352:	69 6e 74 5f 65 62 78 	imul   $0x7862655f,0x74(%esi),%ebp
c0112359:	00 70 72             	add    %dh,0x72(%eax)
c011235c:	69 6e 74 5f 65 64 78 	imul   $0x7864655f,0x74(%esi),%ebp
c0112363:	00 63 70             	add    %ah,0x70(%ebx)
c0112366:	75 69                	jne    c01123d1 <__x86.get_pc_thunk.si+0x3c1>
c0112368:	64 5f                	fs pop %edi
c011236a:	74 65                	je     c01123d1 <__x86.get_pc_thunk.si+0x3c1>
c011236c:	73 74                	jae    c01123e2 <__x86.get_pc_thunk.si+0x3d2>
c011236e:	00 6b 65             	add    %ch,0x65(%ebx)
c0112371:	6e                   	outsb  %ds:(%esi),(%dx)
c0112372:	74 72                	je     c01123e6 <__x86.get_pc_thunk.si+0x3d6>
c0112374:	79 00                	jns    c0112376 <__x86.get_pc_thunk.si+0x366>
c0112376:	76 5f                	jbe    c01123d7 <__x86.get_pc_thunk.si+0x3c7>
c0112378:	65 6e                	outsb  %gs:(%esi),(%dx)
c011237a:	74 72                	je     c01123ee <__x86.get_pc_thunk.si+0x3de>
c011237c:	79 00                	jns    c011237e <__x86.get_pc_thunk.si+0x36e>
c011237e:	76 5f                	jbe    c01123df <__x86.get_pc_thunk.si+0x3cf>
c0112380:	63 6c 65 61          	arpl   %bp,0x61(%ebp,%eiz,2)
c0112384:	72 5f                	jb     c01123e5 <__x86.get_pc_thunk.si+0x3d5>
c0112386:	62 75 66             	bound  %esi,0x66(%ebp)
c0112389:	66 65 72 00          	data16 gs jb c011238d <__x86.get_pc_thunk.si+0x37d>
c011238d:	76 5f                	jbe    c01123ee <__x86.get_pc_thunk.si+0x3de>
c011238f:	69 6e 69 74 00 76 5f 	imul   $0x5f760074,0x69(%esi),%ebp
c0112396:	70 75                	jo     c011240d <__x86.get_pc_thunk.si+0x3fd>
c0112398:	74 6e                	je     c0112408 <__x86.get_pc_thunk.si+0x3f8>
c011239a:	6c                   	insb   (%dx),%es:(%edi)
c011239b:	00 76 5f             	add    %dh,0x5f(%esi)
c011239e:	70 75                	jo     c0112415 <__x86.get_pc_thunk.si+0x405>
c01123a0:	74 63                	je     c0112405 <__x86.get_pc_thunk.si+0x3f5>
c01123a2:	00 76 5f             	add    %dh,0x5f(%esi)
c01123a5:	70 75                	jo     c011241c <__x86.get_pc_thunk.si+0x40c>
c01123a7:	74 73                	je     c011241c <__x86.get_pc_thunk.si+0x40c>
c01123a9:	00 76 5f             	add    %dh,0x5f(%esi)
c01123ac:	70 75                	jo     c0112423 <__x86.get_pc_thunk.si+0x413>
c01123ae:	74 69                	je     c0112419 <__x86.get_pc_thunk.si+0x409>
c01123b0:	00 76 5f             	add    %dh,0x5f(%esi)
c01123b3:	70 75                	jo     c011242a <__x86.get_pc_thunk.si+0x41a>
c01123b5:	74 62                	je     c0112419 <__x86.get_pc_thunk.si+0x409>
c01123b7:	00 76 5f             	add    %dh,0x5f(%esi)
c01123ba:	70 72                	jo     c011242e <__x86.get_pc_thunk.si+0x41e>
c01123bc:	69 6e 74 66 00 2e 4c 	imul   $0x4c2e0066,0x74(%esi),%ebp
c01123c3:	37                   	aaa
c01123c4:	34 00                	xor    $0x0,%al
c01123c6:	2e 4c                	cs dec %esp
c01123c8:	37                   	aaa
c01123c9:	30 00                	xor    %al,(%eax)
c01123cb:	2e 4c                	cs dec %esp
c01123cd:	31 30                	xor    %esi,(%eax)
c01123cf:	35 00 2e 4c 37       	xor    $0x374c2e00,%eax
c01123d4:	32 00                	xor    (%eax),%al
c01123d6:	2e 4c                	cs dec %esp
c01123d8:	37                   	aaa
c01123d9:	31 00                	xor    %eax,(%eax)
c01123db:	2e 4c                	cs dec %esp
c01123dd:	36 37                	ss aaa
c01123df:	00 2e                	add    %ch,(%esi)
c01123e1:	4c                   	dec    %esp
c01123e2:	36 39 00             	cmp    %eax,%ss:(%eax)
c01123e5:	73 74                	jae    c011245b <__x86.get_pc_thunk.si+0x44b>
c01123e7:	72 6c                	jb     c0112455 <__x86.get_pc_thunk.si+0x445>
c01123e9:	65 6e                	outsb  %gs:(%esi),(%dx)
c01123eb:	00 64 69 67          	add    %ah,0x67(%ecx,%ebp,2)
c01123ef:	69 74 5f 63 6f 75 6e 	imul   $0x746e756f,0x63(%edi,%ebx,2),%esi
c01123f6:	74 
c01123f7:	00 69 74             	add    %ch,0x74(%ecx)
c01123fa:	6f                   	outsl  %ds:(%esi),(%dx)
c01123fb:	61                   	popa
c01123fc:	00 75 74             	add    %dh,0x74(%ebp)
c01123ff:	6f                   	outsl  %ds:(%esi),(%dx)
c0112400:	61                   	popa
c0112401:	00 63 70             	add    %ah,0x70(%ebx)
c0112404:	75 69                	jne    c011246f <__x86.get_pc_thunk.si+0x45f>
c0112406:	64 00 69 6e          	add    %ch,%fs:0x6e(%ecx)
c011240a:	62 00                	bound  %eax,(%eax)
c011240c:	6f                   	outsl  %ds:(%esi),(%dx)
c011240d:	75 74                	jne    c0112483 <__x86.get_pc_thunk.si+0x473>
c011240f:	62 00                	bound  %eax,(%eax)
c0112411:	77 61                	ja     c0112474 <__x86.get_pc_thunk.si+0x464>
c0112413:	69 74 5f 66 6f 72 5f 	imul   $0x695f726f,0x66(%edi,%ebx,2),%esi
c011241a:	69 
c011241b:	6f                   	outsl  %ds:(%esi),(%dx)
c011241c:	00 73 6c             	add    %dh,0x6c(%ebx)
c011241f:	65 65 70 00          	gs gs jo c0112423 <__x86.get_pc_thunk.si+0x413>
c0112423:	69 64 74 5f 69 6e 69 	imul   $0x74696e69,0x5f(%esp,%esi,2),%esp
c011242a:	74 
c011242b:	00 69 64             	add    %ch,0x64(%ecx)
c011242e:	74 5f                	je     c011248f <__x86.get_pc_thunk.si+0x47f>
c0112430:	73 65                	jae    c0112497 <__x86.get_pc_thunk.si+0x487>
c0112432:	74 5f                	je     c0112493 <__x86.get_pc_thunk.si+0x483>
c0112434:	67 61                	addr16 popa
c0112436:	74 65                	je     c011249d <__x86.get_pc_thunk.si+0x48d>
c0112438:	00 67 64             	add    %ah,0x64(%edi)
c011243b:	74 5f                	je     c011249c <__x86.get_pc_thunk.si+0x48c>
c011243d:	6c                   	insb   (%dx),%es:(%edi)
c011243e:	6f                   	outsl  %ds:(%esi),(%dx)
c011243f:	61                   	popa
c0112440:	64 00 2e             	add    %ch,%fs:(%esi)
c0112443:	6c                   	insb   (%dx),%es:(%edi)
c0112444:	6f                   	outsl  %ds:(%esi),(%dx)
c0112445:	6e                   	outsb  %ds:(%esi),(%dx)
c0112446:	67 6a 6d             	addr16 push $0x6d
c0112449:	70 00                	jo     c011244b <__x86.get_pc_thunk.si+0x43b>
c011244b:	69 64 74 5f 72 65 6c 	imul   $0x6f6c6572,0x5f(%esp,%esi,2),%esp
c0112452:	6f 
c0112453:	61                   	popa
c0112454:	64 00 69 6e          	add    %ch,%fs:0x6e(%ecx)
c0112458:	74 65                	je     c01124bf <__x86.get_pc_thunk.si+0x4af>
c011245a:	72 72                	jb     c01124ce <__x86.get_pc_thunk.si+0x4be>
c011245c:	75 70                	jne    c01124ce <__x86.get_pc_thunk.si+0x4be>
c011245e:	74 5f                	je     c01124bf <__x86.get_pc_thunk.si+0x4af>
c0112460:	68 61 6e 64 6c       	push   $0x6c646e61
c0112465:	65 72 00             	gs jb  c0112468 <__x86.get_pc_thunk.si+0x458>
c0112468:	67 64 74 5f          	addr16 fs je c01124cb <__x86.get_pc_thunk.si+0x4bb>
c011246c:	69 6e 69 74 00 69 73 	imul   $0x73690074,0x69(%esi),%ebp
c0112473:	72 5f                	jb     c01124d4 <__x86.get_pc_thunk.si+0x4c4>
c0112475:	63 6f 6d             	arpl   %bp,0x6d(%edi)
c0112478:	6d                   	insl   (%dx),%es:(%edi)
c0112479:	6f                   	outsl  %ds:(%esi),(%dx)
c011247a:	6e                   	outsb  %ds:(%esi),(%dx)
c011247b:	5f                   	pop    %edi
c011247c:	73 74                	jae    c01124f2 <__x86.get_pc_thunk.si+0x4e2>
c011247e:	75 62                	jne    c01124e2 <__x86.get_pc_thunk.si+0x4d2>
c0112480:	00 69 73             	add    %ch,0x73(%ecx)
c0112483:	72 5f                	jb     c01124e4 <__x86.get_pc_thunk.si+0x4d4>
c0112485:	73 74                	jae    c01124fb <__x86.get_pc_thunk.si+0x4eb>
c0112487:	75 62                	jne    c01124eb <__x86.get_pc_thunk.si+0x4db>
c0112489:	5f                   	pop    %edi
c011248a:	30 00                	xor    %al,(%eax)
c011248c:	69 73 72 5f 73 74 75 	imul   $0x7574735f,0x72(%ebx),%esi
c0112493:	62 5f 31             	bound  %ebx,0x31(%edi)
c0112496:	00 69 73             	add    %ch,0x73(%ecx)
c0112499:	72 5f                	jb     c01124fa <__x86.get_pc_thunk.si+0x4ea>
c011249b:	73 74                	jae    c0112511 <__x86.get_pc_thunk.si+0x501>
c011249d:	75 62                	jne    c0112501 <__x86.get_pc_thunk.si+0x4f1>
c011249f:	5f                   	pop    %edi
c01124a0:	32 00                	xor    (%eax),%al
c01124a2:	69 73 72 5f 73 74 75 	imul   $0x7574735f,0x72(%ebx),%esi
c01124a9:	62 5f 33             	bound  %ebx,0x33(%edi)
c01124ac:	00 69 73             	add    %ch,0x73(%ecx)
c01124af:	72 5f                	jb     c0112510 <__x86.get_pc_thunk.si+0x500>
c01124b1:	73 74                	jae    c0112527 <__x86.get_pc_thunk.si+0x517>
c01124b3:	75 62                	jne    c0112517 <__x86.get_pc_thunk.si+0x507>
c01124b5:	5f                   	pop    %edi
c01124b6:	34 00                	xor    $0x0,%al
c01124b8:	69 73 72 5f 73 74 75 	imul   $0x7574735f,0x72(%ebx),%esi
c01124bf:	62 5f 35             	bound  %ebx,0x35(%edi)
c01124c2:	00 69 73             	add    %ch,0x73(%ecx)
c01124c5:	72 5f                	jb     c0112526 <__x86.get_pc_thunk.si+0x516>
c01124c7:	73 74                	jae    c011253d <__x86.get_pc_thunk.si+0x52d>
c01124c9:	75 62                	jne    c011252d <__x86.get_pc_thunk.si+0x51d>
c01124cb:	5f                   	pop    %edi
c01124cc:	36 00 69 73          	add    %ch,%ss:0x73(%ecx)
c01124d0:	72 5f                	jb     c0112531 <__x86.get_pc_thunk.si+0x521>
c01124d2:	73 74                	jae    c0112548 <__x86.get_pc_thunk.si+0x538>
c01124d4:	75 62                	jne    c0112538 <__x86.get_pc_thunk.si+0x528>
c01124d6:	5f                   	pop    %edi
c01124d7:	37                   	aaa
c01124d8:	00 69 73             	add    %ch,0x73(%ecx)
c01124db:	72 5f                	jb     c011253c <__x86.get_pc_thunk.si+0x52c>
c01124dd:	73 74                	jae    c0112553 <__x86.get_pc_thunk.si+0x543>
c01124df:	75 62                	jne    c0112543 <__x86.get_pc_thunk.si+0x533>
c01124e1:	5f                   	pop    %edi
c01124e2:	38 00                	cmp    %al,(%eax)
c01124e4:	69 73 72 5f 73 74 75 	imul   $0x7574735f,0x72(%ebx),%esi
c01124eb:	62 5f 39             	bound  %ebx,0x39(%edi)
c01124ee:	00 69 73             	add    %ch,0x73(%ecx)
c01124f1:	72 5f                	jb     c0112552 <__x86.get_pc_thunk.si+0x542>
c01124f3:	73 74                	jae    c0112569 <__x86.get_pc_thunk.si+0x559>
c01124f5:	75 62                	jne    c0112559 <__x86.get_pc_thunk.si+0x549>
c01124f7:	5f                   	pop    %edi
c01124f8:	31 30                	xor    %esi,(%eax)
c01124fa:	00 69 73             	add    %ch,0x73(%ecx)
c01124fd:	72 5f                	jb     c011255e <__x86.get_pc_thunk.si+0x54e>
c01124ff:	73 74                	jae    c0112575 <__x86.get_pc_thunk.si+0x565>
c0112501:	75 62                	jne    c0112565 <__x86.get_pc_thunk.si+0x555>
c0112503:	5f                   	pop    %edi
c0112504:	31 31                	xor    %esi,(%ecx)
c0112506:	00 69 73             	add    %ch,0x73(%ecx)
c0112509:	72 5f                	jb     c011256a <__x86.get_pc_thunk.si+0x55a>
c011250b:	73 74                	jae    c0112581 <__x86.get_pc_thunk.si+0x571>
c011250d:	75 62                	jne    c0112571 <__x86.get_pc_thunk.si+0x561>
c011250f:	5f                   	pop    %edi
c0112510:	31 32                	xor    %esi,(%edx)
c0112512:	00 69 73             	add    %ch,0x73(%ecx)
c0112515:	72 5f                	jb     c0112576 <__x86.get_pc_thunk.si+0x566>
c0112517:	73 74                	jae    c011258d <__x86.get_pc_thunk.si+0x57d>
c0112519:	75 62                	jne    c011257d <__x86.get_pc_thunk.si+0x56d>
c011251b:	5f                   	pop    %edi
c011251c:	31 33                	xor    %esi,(%ebx)
c011251e:	00 69 73             	add    %ch,0x73(%ecx)
c0112521:	72 5f                	jb     c0112582 <__x86.get_pc_thunk.si+0x572>
c0112523:	73 74                	jae    c0112599 <__x86.get_pc_thunk.si+0x589>
c0112525:	75 62                	jne    c0112589 <__x86.get_pc_thunk.si+0x579>
c0112527:	5f                   	pop    %edi
c0112528:	31 34 00             	xor    %esi,(%eax,%eax,1)
c011252b:	69 73 72 5f 73 74 75 	imul   $0x7574735f,0x72(%ebx),%esi
c0112532:	62 5f 31             	bound  %ebx,0x31(%edi)
c0112535:	35 00 69 73 72       	xor    $0x72736900,%eax
c011253a:	5f                   	pop    %edi
c011253b:	73 74                	jae    c01125b1 <__x86.get_pc_thunk.si+0x5a1>
c011253d:	75 62                	jne    c01125a1 <__x86.get_pc_thunk.si+0x591>
c011253f:	5f                   	pop    %edi
c0112540:	31 36                	xor    %esi,(%esi)
c0112542:	00 69 73             	add    %ch,0x73(%ecx)
c0112545:	72 5f                	jb     c01125a6 <__x86.get_pc_thunk.si+0x596>
c0112547:	73 74                	jae    c01125bd <__x86.get_pc_thunk.si+0x5ad>
c0112549:	75 62                	jne    c01125ad <__x86.get_pc_thunk.si+0x59d>
c011254b:	5f                   	pop    %edi
c011254c:	31 37                	xor    %esi,(%edi)
c011254e:	00 69 73             	add    %ch,0x73(%ecx)
c0112551:	72 5f                	jb     c01125b2 <__x86.get_pc_thunk.si+0x5a2>
c0112553:	73 74                	jae    c01125c9 <__x86.get_pc_thunk.si+0x5b9>
c0112555:	75 62                	jne    c01125b9 <__x86.get_pc_thunk.si+0x5a9>
c0112557:	5f                   	pop    %edi
c0112558:	31 38                	xor    %edi,(%eax)
c011255a:	00 69 73             	add    %ch,0x73(%ecx)
c011255d:	72 5f                	jb     c01125be <__x86.get_pc_thunk.si+0x5ae>
c011255f:	73 74                	jae    c01125d5 <__x86.get_pc_thunk.si+0x5c5>
c0112561:	75 62                	jne    c01125c5 <__x86.get_pc_thunk.si+0x5b5>
c0112563:	5f                   	pop    %edi
c0112564:	31 39                	xor    %edi,(%ecx)
c0112566:	00 69 73             	add    %ch,0x73(%ecx)
c0112569:	72 5f                	jb     c01125ca <__x86.get_pc_thunk.si+0x5ba>
c011256b:	73 74                	jae    c01125e1 <__x86.get_pc_thunk.si+0x5d1>
c011256d:	75 62                	jne    c01125d1 <__x86.get_pc_thunk.si+0x5c1>
c011256f:	5f                   	pop    %edi
c0112570:	32 30                	xor    (%eax),%dh
c0112572:	00 69 73             	add    %ch,0x73(%ecx)
c0112575:	72 5f                	jb     c01125d6 <__x86.get_pc_thunk.si+0x5c6>
c0112577:	73 74                	jae    c01125ed <__x86.get_pc_thunk.si+0x5dd>
c0112579:	75 62                	jne    c01125dd <__x86.get_pc_thunk.si+0x5cd>
c011257b:	5f                   	pop    %edi
c011257c:	32 31                	xor    (%ecx),%dh
c011257e:	00 69 73             	add    %ch,0x73(%ecx)
c0112581:	72 5f                	jb     c01125e2 <__x86.get_pc_thunk.si+0x5d2>
c0112583:	73 74                	jae    c01125f9 <__x86.get_pc_thunk.si+0x5e9>
c0112585:	75 62                	jne    c01125e9 <__x86.get_pc_thunk.si+0x5d9>
c0112587:	5f                   	pop    %edi
c0112588:	32 32                	xor    (%edx),%dh
c011258a:	00 69 73             	add    %ch,0x73(%ecx)
c011258d:	72 5f                	jb     c01125ee <__x86.get_pc_thunk.si+0x5de>
c011258f:	73 74                	jae    c0112605 <__x86.get_pc_thunk.si+0x5f5>
c0112591:	75 62                	jne    c01125f5 <__x86.get_pc_thunk.si+0x5e5>
c0112593:	5f                   	pop    %edi
c0112594:	32 33                	xor    (%ebx),%dh
c0112596:	00 69 73             	add    %ch,0x73(%ecx)
c0112599:	72 5f                	jb     c01125fa <__x86.get_pc_thunk.si+0x5ea>
c011259b:	73 74                	jae    c0112611 <__x86.get_pc_thunk.si+0x601>
c011259d:	75 62                	jne    c0112601 <__x86.get_pc_thunk.si+0x5f1>
c011259f:	5f                   	pop    %edi
c01125a0:	32 34 00             	xor    (%eax,%eax,1),%dh
c01125a3:	69 73 72 5f 73 74 75 	imul   $0x7574735f,0x72(%ebx),%esi
c01125aa:	62 5f 32             	bound  %ebx,0x32(%edi)
c01125ad:	35 00 69 73 72       	xor    $0x72736900,%eax
c01125b2:	5f                   	pop    %edi
c01125b3:	73 74                	jae    c0112629 <__x86.get_pc_thunk.si+0x619>
c01125b5:	75 62                	jne    c0112619 <__x86.get_pc_thunk.si+0x609>
c01125b7:	5f                   	pop    %edi
c01125b8:	32 36                	xor    (%esi),%dh
c01125ba:	00 69 73             	add    %ch,0x73(%ecx)
c01125bd:	72 5f                	jb     c011261e <__x86.get_pc_thunk.si+0x60e>
c01125bf:	73 74                	jae    c0112635 <__x86.get_pc_thunk.si+0x625>
c01125c1:	75 62                	jne    c0112625 <__x86.get_pc_thunk.si+0x615>
c01125c3:	5f                   	pop    %edi
c01125c4:	32 37                	xor    (%edi),%dh
c01125c6:	00 69 73             	add    %ch,0x73(%ecx)
c01125c9:	72 5f                	jb     c011262a <__x86.get_pc_thunk.si+0x61a>
c01125cb:	73 74                	jae    c0112641 <__x86.get_pc_thunk.si+0x631>
c01125cd:	75 62                	jne    c0112631 <__x86.get_pc_thunk.si+0x621>
c01125cf:	5f                   	pop    %edi
c01125d0:	32 38                	xor    (%eax),%bh
c01125d2:	00 69 73             	add    %ch,0x73(%ecx)
c01125d5:	72 5f                	jb     c0112636 <__x86.get_pc_thunk.si+0x626>
c01125d7:	73 74                	jae    c011264d <__x86.get_pc_thunk.si+0x63d>
c01125d9:	75 62                	jne    c011263d <__x86.get_pc_thunk.si+0x62d>
c01125db:	5f                   	pop    %edi
c01125dc:	32 39                	xor    (%ecx),%bh
c01125de:	00 69 73             	add    %ch,0x73(%ecx)
c01125e1:	72 5f                	jb     c0112642 <__x86.get_pc_thunk.si+0x632>
c01125e3:	73 74                	jae    c0112659 <__x86.get_pc_thunk.si+0x649>
c01125e5:	75 62                	jne    c0112649 <__x86.get_pc_thunk.si+0x639>
c01125e7:	5f                   	pop    %edi
c01125e8:	33 30                	xor    (%eax),%esi
c01125ea:	00 69 73             	add    %ch,0x73(%ecx)
c01125ed:	72 5f                	jb     c011264e <__x86.get_pc_thunk.si+0x63e>
c01125ef:	73 74                	jae    c0112665 <__x86.get_pc_thunk.si+0x655>
c01125f1:	75 62                	jne    c0112655 <__x86.get_pc_thunk.si+0x645>
c01125f3:	5f                   	pop    %edi
c01125f4:	33 31                	xor    (%ecx),%esi
c01125f6:	00 69 73             	add    %ch,0x73(%ecx)
c01125f9:	72 5f                	jb     c011265a <__x86.get_pc_thunk.si+0x64a>
c01125fb:	73 74                	jae    c0112671 <__x86.get_pc_thunk.si+0x661>
c01125fd:	75 62                	jne    c0112661 <__x86.get_pc_thunk.si+0x651>
c01125ff:	5f                   	pop    %edi
c0112600:	74 61                	je     c0112663 <__x86.get_pc_thunk.si+0x653>
c0112602:	62 6c 65 00          	bound  %ebp,0x0(%ebp,%eiz,2)
c0112606:	5f                   	pop    %edi
c0112607:	5f                   	pop    %edi
c0112608:	78 38                	js     c0112642 <__x86.get_pc_thunk.si+0x632>
c011260a:	36 2e 67 65 74 5f    	ss cs addr16 je,pn c011266f <__x86.get_pc_thunk.si+0x65f>
c0112610:	70 63                	jo     c0112675 <__x86.get_pc_thunk.si+0x665>
c0112612:	5f                   	pop    %edi
c0112613:	74 68                	je     c011267d <__x86.get_pc_thunk.si+0x66d>
c0112615:	75 6e                	jne    c0112685 <__x86.get_pc_thunk.si+0x675>
c0112617:	6b 2e 62             	imul   $0x62,(%esi),%ebp
c011261a:	78 00                	js     c011261c <__x86.get_pc_thunk.si+0x60c>
c011261c:	5f                   	pop    %edi
c011261d:	5f                   	pop    %edi
c011261e:	78 38                	js     c0112658 <__x86.get_pc_thunk.si+0x648>
c0112620:	36 2e 67 65 74 5f    	ss cs addr16 je,pn c0112685 <__x86.get_pc_thunk.si+0x675>
c0112626:	70 63                	jo     c011268b <__x86.get_pc_thunk.si+0x67b>
c0112628:	5f                   	pop    %edi
c0112629:	74 68                	je     c0112693 <__x86.get_pc_thunk.si+0x683>
c011262b:	75 6e                	jne    c011269b <__x86.get_pc_thunk.si+0x68b>
c011262d:	6b 2e 61             	imul   $0x61,(%esi),%ebp
c0112630:	78 00                	js     c0112632 <__x86.get_pc_thunk.si+0x622>
c0112632:	5f                   	pop    %edi
c0112633:	5f                   	pop    %edi
c0112634:	78 38                	js     c011266e <__x86.get_pc_thunk.si+0x65e>
c0112636:	36 2e 67 65 74 5f    	ss cs addr16 je,pn c011269b <__x86.get_pc_thunk.si+0x68b>
c011263c:	70 63                	jo     c01126a1 <__x86.get_pc_thunk.si+0x691>
c011263e:	5f                   	pop    %edi
c011263f:	74 68                	je     c01126a9 <__x86.get_pc_thunk.si+0x699>
c0112641:	75 6e                	jne    c01126b1 <__x86.get_pc_thunk.si+0x6a1>
c0112643:	6b 2e 64             	imul   $0x64,(%esi),%ebp
c0112646:	78 00                	js     c0112648 <__x86.get_pc_thunk.si+0x638>
c0112648:	5f                   	pop    %edi
c0112649:	5f                   	pop    %edi
c011264a:	78 38                	js     c0112684 <__x86.get_pc_thunk.si+0x674>
c011264c:	36 2e 67 65 74 5f    	ss cs addr16 je,pn c01126b1 <__x86.get_pc_thunk.si+0x6a1>
c0112652:	70 63                	jo     c01126b7 <__x86.get_pc_thunk.si+0x6a7>
c0112654:	5f                   	pop    %edi
c0112655:	74 68                	je     c01126bf <__x86.get_pc_thunk.si+0x6af>
c0112657:	75 6e                	jne    c01126c7 <__x86.get_pc_thunk.si+0x6b7>
c0112659:	6b 2e 63             	imul   $0x63,(%esi),%ebp
c011265c:	78 00                	js     c011265e <__x86.get_pc_thunk.si+0x64e>
c011265e:	5f                   	pop    %edi
c011265f:	5f                   	pop    %edi
c0112660:	78 38                	js     c011269a <__x86.get_pc_thunk.si+0x68a>
c0112662:	36 2e 67 65 74 5f    	ss cs addr16 je,pn c01126c7 <__x86.get_pc_thunk.si+0x6b7>
c0112668:	70 63                	jo     c01126cd <__x86.get_pc_thunk.si+0x6bd>
c011266a:	5f                   	pop    %edi
c011266b:	74 68                	je     c01126d5 <__x86.get_pc_thunk.si+0x6c5>
c011266d:	75 6e                	jne    c01126dd <__x86.get_pc_thunk.si+0x6cd>
c011266f:	6b 2e 73             	imul   $0x73,(%esi),%ebp
c0112672:	69 00 1b 5b 33 34    	imul   $0x34335b1b,(%eax),%eax
c0112678:	6d                   	insl   (%dx),%es:(%edi)
c0112679:	50                   	push   %eax
c011267a:	72 69                	jb     c01126e5 <__x86.get_pc_thunk.si+0x6d5>
c011267c:	76 69                	jbe    c01126e7 <__x86.get_pc_thunk.si+0x6d7>
c011267e:	6c                   	insb   (%dx),%es:(%edi)
c011267f:	65 67 65 64 1b 5b 30 	gs gs sbb %fs:0x30(%bp,%di),%ebx
c0112686:	6d                   	insl   (%dx),%es:(%edi)
c0112687:	00 1b                	add    %bl,(%ebx)
c0112689:	5b                   	pop    %ebx
c011268a:	33 35 6d 41 62 73    	xor    0x7362416d,%esi
c0112690:	65 6e                	outsb  %gs:(%esi),(%dx)
c0112692:	74 1b                	je     c01126af <__x86.get_pc_thunk.si+0x69f>
c0112694:	5b                   	pop    %ebx
c0112695:	30 6d 00             	xor    %ch,0x0(%ebp)
c0112698:	1b 5b 33             	sbb    0x33(%ebx),%ebx
c011269b:	34 6d                	xor    $0x6d,%al
c011269d:	57                   	push   %edi
c011269e:	72 69                	jb     c0112709 <__x86.get_pc_thunk.si+0x6f9>
c01126a0:	74 65                	je     c0112707 <__x86.get_pc_thunk.si+0x6f7>
c01126a2:	1b 5b 30             	sbb    0x30(%ebx),%ebx
c01126a5:	6d                   	insl   (%dx),%es:(%edi)
c01126a6:	00 1b                	add    %bl,(%ebx)
c01126a8:	5b                   	pop    %ebx
c01126a9:	33 35 6d 52 65 61    	xor    0x6165526d,%esi
c01126af:	64 1b 5b 30          	sbb    %fs:0x30(%ebx),%ebx
c01126b3:	6d                   	insl   (%dx),%es:(%edi)
c01126b4:	00 1b                	add    %bl,(%ebx)
c01126b6:	5b                   	pop    %ebx
c01126b7:	33 34 6d 55 73 65 72 	xor    0x72657355(,%ebp,2),%esi
c01126be:	1b 5b 30             	sbb    0x30(%ebx),%ebx
c01126c1:	6d                   	insl   (%dx),%es:(%edi)
c01126c2:	00 1b                	add    %bl,(%ebx)
c01126c4:	5b                   	pop    %ebx
c01126c5:	33 35 6d 4b 65 72    	xor    0x72654b6d,%esi
c01126cb:	6e                   	outsb  %ds:(%esi),(%dx)
c01126cc:	65 6c                	gs insb (%dx),%es:(%edi)
c01126ce:	1b 5b 30             	sbb    0x30(%ebx),%ebx
c01126d1:	6d                   	insl   (%dx),%es:(%edi)
c01126d2:	00 1b                	add    %bl,(%ebx)
c01126d4:	5b                   	pop    %ebx
c01126d5:	33 32                	xor    (%edx),%esi
c01126d7:	6d                   	insl   (%dx),%es:(%edi)
c01126d8:	54                   	push   %esp
c01126d9:	72 75                	jb     c0112750 <__x86.get_pc_thunk.si+0x740>
c01126db:	65 1b 5b 30          	sbb    %gs:0x30(%ebx),%ebx
c01126df:	6d                   	insl   (%dx),%es:(%edi)
c01126e0:	00 1b                	add    %bl,(%ebx)
c01126e2:	5b                   	pop    %ebx
c01126e3:	33 31                	xor    (%ecx),%esi
c01126e5:	6d                   	insl   (%dx),%es:(%edi)
c01126e6:	46                   	inc    %esi
c01126e7:	61                   	popa
c01126e8:	6c                   	insb   (%dx),%es:(%edi)
c01126e9:	73 65                	jae    c0112750 <__x86.get_pc_thunk.si+0x740>
c01126eb:	1b 5b 30             	sbb    0x30(%ebx),%ebx
c01126ee:	6d                   	insl   (%dx),%es:(%edi)
c01126ef:	00 1b                	add    %bl,(%ebx)
c01126f1:	5b                   	pop    %ebx
c01126f2:	33 31                	xor    (%ecx),%esi
c01126f4:	3b 31                	cmp    (%ecx),%esi
c01126f6:	6d                   	insl   (%dx),%es:(%edi)
c01126f7:	46                   	inc    %esi
c01126f8:	41                   	inc    %ecx
c01126f9:	54                   	push   %esp
c01126fa:	41                   	inc    %ecx
c01126fb:	4c                   	dec    %esp
c01126fc:	20 1b                	and    %bl,(%ebx)
c01126fe:	5b                   	pop    %ebx
c01126ff:	30 3b                	xor    %bh,(%ebx)
c0112701:	30 6d 00             	xor    %ch,0x0(%ebp)
c0112704:	41                   	inc    %ecx
c0112705:	74 74                	je     c011277b <__x86.get_pc_thunk.si+0x76b>
c0112707:	65 6d                	gs insl (%dx),%es:(%edi)
c0112709:	70 74                	jo     c011277f <__x86.get_pc_thunk.si+0x76f>
c011270b:	65 64 20 53 74       	gs and %dl,%fs:0x74(%ebx)
c0112710:	61                   	popa
c0112711:	63 6b 74             	arpl   %bp,0x74(%ebx)
c0112714:	72 61                	jb     c0112777 <__x86.get_pc_thunk.si+0x767>
c0112716:	63 65 3a             	arpl   %sp,0x3a(%ebp)
c0112719:	0a 00                	or     (%eax),%al
c011271b:	20 20                	and    %ah,(%eax)
c011271d:	20 20                	and    %ah,(%eax)
c011271f:	1b 5b 33             	sbb    0x33(%ebx),%ebx
c0112722:	33 6d 30             	xor    0x30(%ebp),%ebp
c0112725:	78 00                	js     c0112727 <__x86.get_pc_thunk.si+0x717>
c0112727:	1b 5b 30             	sbb    0x30(%ebx),%ebx
c011272a:	6d                   	insl   (%dx),%es:(%edi)
c011272b:	09 09                	or     %ecx,(%ecx)
c011272d:	20 3c 1b             	and    %bh,(%ebx,%ebx,1)
c0112730:	5b                   	pop    %ebx
c0112731:	33 31                	xor    (%ecx),%esi
c0112733:	6d                   	insl   (%dx),%es:(%edi)
c0112734:	75 6e                	jne    c01127a4 <__x86.get_pc_thunk.si+0x794>
c0112736:	6b 6e 6f 77          	imul   $0x77,0x6f(%esi),%ebp
c011273a:	6e                   	outsb  %ds:(%esi),(%dx)
c011273b:	1b 5b 30             	sbb    0x30(%ebx),%ebx
c011273e:	6d                   	insl   (%dx),%es:(%edi)
c011273f:	3e 0a 00             	or     %ds:(%eax),%al
c0112742:	1b 5b 30             	sbb    0x30(%ebx),%ebx
c0112745:	6d                   	insl   (%dx),%es:(%edi)
c0112746:	09 09                	or     %ecx,(%ecx)
c0112748:	20 3c 1b             	and    %bh,(%ebx,%ebx,1)
c011274b:	5b                   	pop    %ebx
c011274c:	33 34 6d 00 1b 5b 30 	xor    0x305b1b00(,%ebp,2),%esi
c0112753:	6d                   	insl   (%dx),%es:(%edi)
c0112754:	2c 20                	sub    $0x20,%al
c0112756:	45                   	inc    %ebp
c0112757:	42                   	inc    %edx
c0112758:	58                   	pop    %eax
c0112759:	3a 20                	cmp    (%eax),%ah
c011275b:	1b 5b 33             	sbb    0x33(%ebx),%ebx
c011275e:	33 6d 30             	xor    0x30(%ebp),%ebp
c0112761:	78 00                	js     c0112763 <__x86.get_pc_thunk.si+0x753>
c0112763:	1b 5b 30             	sbb    0x30(%ebx),%ebx
c0112766:	6d                   	insl   (%dx),%es:(%edi)
c0112767:	2c 20                	sub    $0x20,%al
c0112769:	45                   	inc    %ebp
c011276a:	43                   	inc    %ebx
c011276b:	58                   	pop    %eax
c011276c:	3a 20                	cmp    (%eax),%ah
c011276e:	1b 5b 33             	sbb    0x33(%ebx),%ebx
c0112771:	33 6d 30             	xor    0x30(%ebp),%ebp
c0112774:	78 00                	js     c0112776 <__x86.get_pc_thunk.si+0x766>
c0112776:	1b 5b 30             	sbb    0x30(%ebx),%ebx
c0112779:	6d                   	insl   (%dx),%es:(%edi)
c011277a:	2c 20                	sub    $0x20,%al
c011277c:	45                   	inc    %ebp
c011277d:	44                   	inc    %esp
c011277e:	58                   	pop    %eax
c011277f:	3a 20                	cmp    (%eax),%ah
c0112781:	1b 5b 33             	sbb    0x33(%ebx),%ebx
c0112784:	33 6d 30             	xor    0x30(%ebp),%ebp
c0112787:	78 00                	js     c0112789 <__x86.get_pc_thunk.si+0x779>
c0112789:	1b 5b 30             	sbb    0x30(%ebx),%ebx
c011278c:	6d                   	insl   (%dx),%es:(%edi)
c011278d:	2c 20                	sub    $0x20,%al
c011278f:	45                   	inc    %ebp
c0112790:	44                   	inc    %esp
c0112791:	49                   	dec    %ecx
c0112792:	3a 20                	cmp    (%eax),%ah
c0112794:	1b 5b 33             	sbb    0x33(%ebx),%ebx
c0112797:	33 6d 30             	xor    0x30(%ebp),%ebp
c011279a:	78 00                	js     c011279c <__x86.get_pc_thunk.si+0x78c>
c011279c:	1b 5b 30             	sbb    0x30(%ebx),%ebx
c011279f:	6d                   	insl   (%dx),%es:(%edi)
c01127a0:	2c 20                	sub    $0x20,%al
c01127a2:	45                   	inc    %ebp
c01127a3:	53                   	push   %ebx
c01127a4:	49                   	dec    %ecx
c01127a5:	3a 20                	cmp    (%eax),%ah
c01127a7:	1b 5b 33             	sbb    0x33(%ebx),%ebx
c01127aa:	33 6d 30             	xor    0x30(%ebp),%ebp
c01127ad:	78 00                	js     c01127af <__x86.get_pc_thunk.si+0x79f>
c01127af:	1b 5b 30             	sbb    0x30(%ebx),%ebx
c01127b2:	6d                   	insl   (%dx),%es:(%edi)
c01127b3:	0a 20                	or     (%eax),%ah
c01127b5:	20 20                	and    %ah,(%eax)
c01127b7:	20 45 53             	and    %al,0x53(%ebp)
c01127ba:	50                   	push   %eax
c01127bb:	3a 20                	cmp    (%eax),%ah
c01127bd:	1b 5b 33             	sbb    0x33(%ebx),%ebx
c01127c0:	33 6d 30             	xor    0x30(%ebp),%ebp
c01127c3:	78 00                	js     c01127c5 <__x86.get_pc_thunk.si+0x7b5>
c01127c5:	1b 5b 30             	sbb    0x30(%ebx),%ebx
c01127c8:	6d                   	insl   (%dx),%es:(%edi)
c01127c9:	2c 20                	sub    $0x20,%al
c01127cb:	45                   	inc    %ebp
c01127cc:	42                   	inc    %edx
c01127cd:	50                   	push   %eax
c01127ce:	3a 20                	cmp    (%eax),%ah
c01127d0:	1b 5b 33             	sbb    0x33(%ebx),%ebx
c01127d3:	33 6d 30             	xor    0x30(%ebp),%ebp
c01127d6:	78 00                	js     c01127d8 <__x86.get_pc_thunk.si+0x7c8>
c01127d8:	1b 5b 30             	sbb    0x30(%ebx),%ebx
c01127db:	6d                   	insl   (%dx),%es:(%edi)
c01127dc:	2c 20                	sub    $0x20,%al
c01127de:	45                   	inc    %ebp
c01127df:	46                   	inc    %esi
c01127e0:	4c                   	dec    %esp
c01127e1:	41                   	inc    %ecx
c01127e2:	47                   	inc    %edi
c01127e3:	53                   	push   %ebx
c01127e4:	3a 20                	cmp    (%eax),%ah
c01127e6:	1b 5b 33             	sbb    0x33(%ebx),%ebx
c01127e9:	33 6d 30             	xor    0x30(%ebp),%ebp
c01127ec:	78 00                	js     c01127ee <__x86.get_pc_thunk.si+0x7de>
c01127ee:	1b 5b 30             	sbb    0x30(%ebx),%ebx
c01127f1:	6d                   	insl   (%dx),%es:(%edi)
c01127f2:	0a 20                	or     (%eax),%ah
c01127f4:	20 20                	and    %ah,(%eax)
c01127f6:	20 45 72             	and    %al,0x72(%ebp)
c01127f9:	72 6f                	jb     c011286a <__x86.get_pc_thunk.si+0x85a>
c01127fb:	72 20                	jb     c011281d <__x86.get_pc_thunk.si+0x80d>
c01127fd:	43                   	inc    %ebx
c01127fe:	6f                   	outsl  %ds:(%esi),(%dx)
c01127ff:	64 65 3a 20          	fs cmp %gs:(%eax),%ah
c0112803:	1b 5b 33             	sbb    0x33(%ebx),%ebx
c0112806:	33 6d 30             	xor    0x30(%ebp),%ebp
c0112809:	62 00                	bound  %eax,(%eax)
c011280b:	1b 5b 30             	sbb    0x30(%ebx),%ebx
c011280e:	6d                   	insl   (%dx),%es:(%edi)
c011280f:	0a 00                	or     (%eax),%al
c0112811:	0a 20                	or     (%eax),%ah
c0112813:	20 20                	and    %ah,(%eax)
c0112815:	20 41 63             	and    %al,0x63(%ecx)
c0112818:	63 65 73             	arpl   %sp,0x73(%ebp)
c011281b:	73 3a                	jae    c0112857 <__x86.get_pc_thunk.si+0x847>
c011281d:	09 00                	or     %eax,(%eax)
c011281f:	0a 20                	or     (%eax),%ah
c0112821:	20 20                	and    %ah,(%eax)
c0112823:	20 4f 72             	and    %cl,0x72(%edi)
c0112826:	69 67 69 6e 3a 09 00 	imul   $0x93a6e,0x69(%edi),%esp
c011282d:	0a 20                	or     (%eax),%ah
c011282f:	20 20                	and    %ah,(%eax)
c0112831:	20 42 61             	and    %al,0x61(%edx)
c0112834:	64 20 45 6e          	and    %al,%fs:0x6e(%ebp)
c0112838:	74 72                	je     c01128ac <__x86.get_pc_thunk.si+0x89c>
c011283a:	79 3a                	jns    c0112876 <__x86.get_pc_thunk.si+0x866>
c011283c:	09 00                	or     %eax,(%eax)
c011283e:	0a 20                	or     (%eax),%ah
c0112840:	20 20                	and    %ah,(%eax)
c0112842:	20 45 78             	and    %al,0x78(%ebp)
c0112845:	65 63 75 74          	arpl   %si,%gs:0x74(%ebp)
c0112849:	69 6f 6e 3a 09 00 0a 	imul   $0xa00093a,0x6e(%edi),%ebp
c0112850:	20 20                	and    %ah,(%eax)
c0112852:	20 20                	and    %ah,(%eax)
c0112854:	50                   	push   %eax
c0112855:	4b                   	dec    %ebx
c0112856:	52                   	push   %edx
c0112857:	55                   	push   %ebp
c0112858:	3a 09                	cmp    (%ecx),%cl
c011285a:	00 0a                	add    %cl,(%edx)
c011285c:	20 20                	and    %ah,(%eax)
c011285e:	20 20                	and    %ah,(%eax)
c0112860:	53                   	push   %ebx
c0112861:	68 61 64 6f 77       	push   $0x776f6461
c0112866:	3a 09                	cmp    (%ecx),%cl
c0112868:	00 5b 30             	add    %bl,0x30(%ebx)
c011286b:	78 30                	js     c011289d <__x86.get_pc_thunk.si+0x88d>
c011286d:	31 5d 20             	xor    %ebx,0x20(%ebp)
c0112870:	44                   	inc    %esp
c0112871:	65 62 75 67          	bound  %esi,%gs:0x67(%ebp)
c0112875:	20 45 78             	and    %al,0x78(%ebp)
c0112878:	63 65 70             	arpl   %sp,0x70(%ebp)
c011287b:	74 69                	je     c01128e6 <__x86.get_pc_thunk.si+0x8d6>
c011287d:	6f                   	outsl  %ds:(%esi),(%dx)
c011287e:	6e                   	outsb  %ds:(%esi),(%dx)
c011287f:	00 5b 30             	add    %bl,0x30(%ebx)
c0112882:	78 30                	js     c01128b4 <__x86.get_pc_thunk.si+0x8a4>
c0112884:	33 5d 20             	xor    0x20(%ebp),%ebx
c0112887:	42                   	inc    %edx
c0112888:	72 65                	jb     c01128ef <__x86.get_pc_thunk.si+0x8df>
c011288a:	61                   	popa
c011288b:	6b 70 6f 69          	imul   $0x69,0x6f(%eax),%esi
c011288f:	6e                   	outsb  %ds:(%esi),(%dx)
c0112890:	74 20                	je     c01128b2 <__x86.get_pc_thunk.si+0x8a2>
c0112892:	45                   	inc    %ebp
c0112893:	78 63                	js     c01128f8 <__x86.get_pc_thunk.si+0x8e8>
c0112895:	65 70 74             	gs jo  c011290c <__x86.get_pc_thunk.si+0x8fc>
c0112898:	69 6f 6e 00 5b 30 78 	imul   $0x78305b00,0x6e(%edi),%ebp
c011289f:	30 34 5d 20 4f 76 65 	xor    %dh,0x65764f20(,%ebx,2)
c01128a6:	72 66                	jb     c011290e <__x86.get_pc_thunk.si+0x8fe>
c01128a8:	6c                   	insb   (%dx),%es:(%edi)
c01128a9:	6f                   	outsl  %ds:(%esi),(%dx)
c01128aa:	77 20                	ja     c01128cc <__x86.get_pc_thunk.si+0x8bc>
c01128ac:	45                   	inc    %ebp
c01128ad:	78 63                	js     c0112912 <__x86.get_pc_thunk.si+0x902>
c01128af:	65 70 74             	gs jo  c0112926 <__x86.get_pc_thunk.si+0x916>
c01128b2:	69 6f 6e 00 5b 30 78 	imul   $0x78305b00,0x6e(%edi),%ebp
c01128b9:	30 38                	xor    %bh,(%eax)
c01128bb:	5d                   	pop    %ebp
c01128bc:	20 44 6f 75          	and    %al,0x75(%edi,%ebp,2)
c01128c0:	62 6c 65 20          	bound  %ebp,0x20(%ebp,%eiz,2)
c01128c4:	46                   	inc    %esi
c01128c5:	61                   	popa
c01128c6:	75 6c                	jne    c0112934 <__x86.get_pc_thunk.si+0x924>
c01128c8:	74 00                	je     c01128ca <__x86.get_pc_thunk.si+0x8ba>
c01128ca:	5b                   	pop    %ebx
c01128cb:	30 78 30             	xor    %bh,0x30(%eax)
c01128ce:	41                   	inc    %ecx
c01128cf:	5d                   	pop    %ebp
c01128d0:	20 49 6e             	and    %cl,0x6e(%ecx)
c01128d3:	76 61                	jbe    c0112936 <__x86.get_pc_thunk.si+0x926>
c01128d5:	6c                   	insb   (%dx),%es:(%edi)
c01128d6:	69 64 20 54 53 53 20 	imul   $0x45205353,0x54(%eax,%eiz,1),%esp
c01128dd:	45 
c01128de:	78 63                	js     c0112943 <__x86.get_pc_thunk.si+0x933>
c01128e0:	65 70 74             	gs jo  c0112957 <__x86.get_pc_thunk.si+0x947>
c01128e3:	69 6f 6e 00 5b 30 78 	imul   $0x78305b00,0x6e(%edi),%ebp
c01128ea:	30 43 5d             	xor    %al,0x5d(%ebx)
c01128ed:	20 53 74             	and    %dl,0x74(%ebx)
c01128f0:	61                   	popa
c01128f1:	63 6b 2d             	arpl   %bp,0x2d(%ebx)
c01128f4:	73 65                	jae    c011295b <__x86.get_pc_thunk.si+0x94b>
c01128f6:	67 6d                	insl   (%dx),%es:(%di)
c01128f8:	65 6e                	outsb  %gs:(%esi),(%dx)
c01128fa:	74 20                	je     c011291c <__x86.get_pc_thunk.si+0x90c>
c01128fc:	46                   	inc    %esi
c01128fd:	61                   	popa
c01128fe:	75 6c                	jne    c011296c <__x86.get_pc_thunk.si+0x95c>
c0112900:	74 00                	je     c0112902 <__x86.get_pc_thunk.si+0x8f2>
c0112902:	5b                   	pop    %ebx
c0112903:	30 78 30             	xor    %bh,0x30(%eax)
c0112906:	45                   	inc    %ebp
c0112907:	5d                   	pop    %ebp
c0112908:	20 50 61             	and    %dl,0x61(%eax)
c011290b:	67 65 20 46 61       	and    %al,%gs:0x61(%bp)
c0112910:	75 6c                	jne    c011297e <__x86.get_pc_thunk.si+0x96e>
c0112912:	74 00                	je     c0112914 <__x86.get_pc_thunk.si+0x904>
c0112914:	5b                   	pop    %ebx
c0112915:	30 78 30             	xor    %bh,0x30(%eax)
c0112918:	46                   	inc    %esi
c0112919:	5d                   	pop    %ebp
c011291a:	20 49 6e             	and    %cl,0x6e(%ecx)
c011291d:	65 78 70             	gs js  c0112990 <__x86.get_pc_thunk.si+0x980>
c0112920:	6c                   	insb   (%dx),%es:(%edi)
c0112921:	69 63 61 62 6c 65 20 	imul   $0x20656c62,0x61(%ebx),%esp
c0112928:	45                   	inc    %ebp
c0112929:	72 72                	jb     c011299d <__x86.get_pc_thunk.si+0x98d>
c011292b:	6f                   	outsl  %ds:(%esi),(%dx)
c011292c:	72 00                	jb     c011292e <__x86.get_pc_thunk.si+0x91e>
c011292e:	5b                   	pop    %ebx
c011292f:	30 78 31             	xor    %bh,0x31(%eax)
c0112932:	30 5d 20             	xor    %bl,0x20(%ebp)
c0112935:	78 38                	js     c011296f <__x86.get_pc_thunk.si+0x95f>
c0112937:	37                   	aaa
c0112938:	20 46 6c             	and    %al,0x6c(%esi)
c011293b:	6f                   	outsl  %ds:(%esi),(%dx)
c011293c:	61                   	popa
c011293d:	74 69                	je     c01129a8 <__x86.get_pc_thunk.si+0x998>
c011293f:	6e                   	outsb  %ds:(%esi),(%dx)
c0112940:	67 20 45 78          	and    %al,0x78(%di)
c0112944:	63 65 70             	arpl   %sp,0x70(%ebp)
c0112947:	74 69                	je     c01129b2 <__x86.get_pc_thunk.si+0x9a2>
c0112949:	6f                   	outsl  %ds:(%esi),(%dx)
c011294a:	6e                   	outsb  %ds:(%esi),(%dx)
c011294b:	00 5b 30             	add    %bl,0x30(%ebx)
c011294e:	78 31                	js     c0112981 <__x86.get_pc_thunk.si+0x971>
c0112950:	31 5d 20             	xor    %ebx,0x20(%ebp)
c0112953:	41                   	inc    %ecx
c0112954:	6c                   	insb   (%dx),%es:(%edi)
c0112955:	69 67 6e 6d 65 6e 74 	imul   $0x746e656d,0x6e(%edi),%esp
c011295c:	20 43 68             	and    %al,0x68(%ebx)
c011295f:	65 63 6b 00          	arpl   %bp,%gs:0x0(%ebx)
c0112963:	5b                   	pop    %ebx
c0112964:	30 78 31             	xor    %bh,0x31(%eax)
c0112967:	32 5d 20             	xor    0x20(%ebp),%bl
c011296a:	4d                   	dec    %ebp
c011296b:	61                   	popa
c011296c:	63 68 69             	arpl   %bp,0x69(%eax)
c011296f:	6e                   	outsb  %ds:(%esi),(%dx)
c0112970:	65 20 43 68          	and    %al,%gs:0x68(%ebx)
c0112974:	65 63 6b 00          	arpl   %bp,%gs:0x0(%ebx)
c0112978:	5b                   	pop    %ebx
c0112979:	30 78 31             	xor    %bh,0x31(%eax)
c011297c:	34 5d                	xor    $0x5d,%al
c011297e:	20 56 69             	and    %dl,0x69(%esi)
c0112981:	72 74                	jb     c01129f7 <__x86.get_pc_thunk.si+0x9e7>
c0112983:	75 61                	jne    c01129e6 <__x86.get_pc_thunk.si+0x9d6>
c0112985:	6c                   	insb   (%dx),%es:(%edi)
c0112986:	69 7a 65 64 20 45 78 	imul   $0x78452064,0x65(%edx),%edi
c011298d:	63 65 70             	arpl   %sp,0x70(%ebp)
c0112990:	74 69                	je     c01129fb <__x86.get_pc_thunk.si+0x9eb>
c0112992:	6f                   	outsl  %ds:(%esi),(%dx)
c0112993:	6e                   	outsb  %ds:(%esi),(%dx)
c0112994:	00 5b 30             	add    %bl,0x30(%ebx)
c0112997:	78 31                	js     c01129ca <__x86.get_pc_thunk.si+0x9ba>
c0112999:	36 5d                	ss pop %ebp
c011299b:	20 49 6e             	and    %cl,0x6e(%ecx)
c011299e:	65 78 70             	gs js  c0112a11 <__x86.get_pc_thunk.si+0xa01>
c01129a1:	6c                   	insb   (%dx),%es:(%edi)
c01129a2:	69 63 61 62 6c 65 20 	imul   $0x20656c62,0x61(%ebx),%esp
c01129a9:	45                   	inc    %ebp
c01129aa:	72 72                	jb     c0112a1e <__x86.get_pc_thunk.si+0xa0e>
c01129ac:	6f                   	outsl  %ds:(%esi),(%dx)
c01129ad:	72 00                	jb     c01129af <__x86.get_pc_thunk.si+0x99f>
c01129af:	5b                   	pop    %ebx
c01129b0:	30 78 31             	xor    %bh,0x31(%eax)
c01129b3:	37                   	aaa
c01129b4:	5d                   	pop    %ebp
c01129b5:	20 49 6e             	and    %cl,0x6e(%ecx)
c01129b8:	65 78 70             	gs js  c0112a2b <__x86.get_pc_thunk.si+0xa1b>
c01129bb:	6c                   	insb   (%dx),%es:(%edi)
c01129bc:	69 63 61 62 6c 65 20 	imul   $0x20656c62,0x61(%ebx),%esp
c01129c3:	45                   	inc    %ebp
c01129c4:	72 72                	jb     c0112a38 <__x86.get_pc_thunk.si+0xa28>
c01129c6:	6f                   	outsl  %ds:(%esi),(%dx)
c01129c7:	72 00                	jb     c01129c9 <__x86.get_pc_thunk.si+0x9b9>
c01129c9:	5b                   	pop    %ebx
c01129ca:	30 78 31             	xor    %bh,0x31(%eax)
c01129cd:	38 5d 20             	cmp    %bl,0x20(%ebp)
c01129d0:	49                   	dec    %ecx
c01129d1:	6e                   	outsb  %ds:(%esi),(%dx)
c01129d2:	65 78 70             	gs js  c0112a45 <__x86.get_pc_thunk.si+0xa35>
c01129d5:	6c                   	insb   (%dx),%es:(%edi)
c01129d6:	69 63 61 62 6c 65 20 	imul   $0x20656c62,0x61(%ebx),%esp
c01129dd:	45                   	inc    %ebp
c01129de:	72 72                	jb     c0112a52 <__x86.get_pc_thunk.si+0xa42>
c01129e0:	6f                   	outsl  %ds:(%esi),(%dx)
c01129e1:	72 00                	jb     c01129e3 <__x86.get_pc_thunk.si+0x9d3>
c01129e3:	5b                   	pop    %ebx
c01129e4:	30 78 31             	xor    %bh,0x31(%eax)
c01129e7:	39 5d 20             	cmp    %ebx,0x20(%ebp)
c01129ea:	49                   	dec    %ecx
c01129eb:	6e                   	outsb  %ds:(%esi),(%dx)
c01129ec:	65 78 70             	gs js  c0112a5f <__x86.get_pc_thunk.si+0xa4f>
c01129ef:	6c                   	insb   (%dx),%es:(%edi)
c01129f0:	69 63 61 62 6c 65 20 	imul   $0x20656c62,0x61(%ebx),%esp
c01129f7:	45                   	inc    %ebp
c01129f8:	72 72                	jb     c0112a6c <__x86.get_pc_thunk.si+0xa5c>
c01129fa:	6f                   	outsl  %ds:(%esi),(%dx)
c01129fb:	72 00                	jb     c01129fd <__x86.get_pc_thunk.si+0x9ed>
c01129fd:	5b                   	pop    %ebx
c01129fe:	30 78 31             	xor    %bh,0x31(%eax)
c0112a01:	41                   	inc    %ecx
c0112a02:	5d                   	pop    %ebp
c0112a03:	20 49 6e             	and    %cl,0x6e(%ecx)
c0112a06:	65 78 70             	gs js  c0112a79 <__x86.get_pc_thunk.si+0xa69>
c0112a09:	6c                   	insb   (%dx),%es:(%edi)
c0112a0a:	69 63 61 62 6c 65 20 	imul   $0x20656c62,0x61(%ebx),%esp
c0112a11:	45                   	inc    %ebp
c0112a12:	72 72                	jb     c0112a86 <__x86.get_pc_thunk.si+0xa76>
c0112a14:	6f                   	outsl  %ds:(%esi),(%dx)
c0112a15:	72 00                	jb     c0112a17 <__x86.get_pc_thunk.si+0xa07>
c0112a17:	5b                   	pop    %ebx
c0112a18:	30 78 31             	xor    %bh,0x31(%eax)
c0112a1b:	42                   	inc    %edx
c0112a1c:	5d                   	pop    %ebp
c0112a1d:	20 49 6e             	and    %cl,0x6e(%ecx)
c0112a20:	65 78 70             	gs js  c0112a93 <__x86.get_pc_thunk.si+0xa83>
c0112a23:	6c                   	insb   (%dx),%es:(%edi)
c0112a24:	69 63 61 62 6c 65 20 	imul   $0x20656c62,0x61(%ebx),%esp
c0112a2b:	45                   	inc    %ebp
c0112a2c:	72 72                	jb     c0112aa0 <__x86.get_pc_thunk.si+0xa90>
c0112a2e:	6f                   	outsl  %ds:(%esi),(%dx)
c0112a2f:	72 00                	jb     c0112a31 <__x86.get_pc_thunk.si+0xa21>
c0112a31:	5b                   	pop    %ebx
c0112a32:	30 78 31             	xor    %bh,0x31(%eax)
c0112a35:	45                   	inc    %ebp
c0112a36:	5d                   	pop    %ebp
c0112a37:	20 53 65             	and    %dl,0x65(%ebx)
c0112a3a:	63 75 72             	arpl   %si,0x72(%ebp)
c0112a3d:	69 74 79 20 45 78 63 	imul   $0x65637845,0x20(%ecx,%edi,2),%esi
c0112a44:	65 
c0112a45:	70 74                	jo     c0112abb <__x86.get_pc_thunk.si+0xaab>
c0112a47:	69 6f 6e 00 5b 30 78 	imul   $0x78305b00,0x6e(%edi),%ebp
c0112a4e:	31 46 5d             	xor    %eax,0x5d(%esi)
c0112a51:	20 49 6e             	and    %cl,0x6e(%ecx)
c0112a54:	65 78 70             	gs js  c0112ac7 <__x86.get_pc_thunk.si+0xab7>
c0112a57:	6c                   	insb   (%dx),%es:(%edi)
c0112a58:	69 63 61 62 6c 65 20 	imul   $0x20656c62,0x61(%ebx),%esp
c0112a5f:	45                   	inc    %ebp
c0112a60:	72 72                	jb     c0112ad4 <__x86.get_pc_thunk.si+0xac4>
c0112a62:	6f                   	outsl  %ds:(%esi),(%dx)
c0112a63:	72 00                	jb     c0112a65 <__x86.get_pc_thunk.si+0xa55>
c0112a65:	00 00                	add    %al,(%eax)
c0112a67:	00 cf                	add    %cl,%bh
c0112a69:	c5 ff ff             	(bad)
c0112a6c:	80 c5 ff             	add    $0xff,%ch
c0112a6f:	ff f0                	push   %eax
c0112a71:	c4                   	(bad)
c0112a72:	ff                   	(bad)
c0112a73:	ff 14 c3             	call   *(%ebx,%eax,8)
c0112a76:	ff                   	(bad)
c0112a77:	ff 14 c3             	call   *(%ebx,%eax,8)
c0112a7a:	ff                   	(bad)
c0112a7b:	ff 14 c3             	call   *(%ebx,%eax,8)
c0112a7e:	ff                   	(bad)
c0112a7f:	ff 14 c3             	call   *(%ebx,%eax,8)
c0112a82:	ff                   	(bad)
c0112a83:	ff 14 c3             	call   *(%ebx,%eax,8)
c0112a86:	ff                   	(bad)
c0112a87:	ff 14 c3             	call   *(%ebx,%eax,8)
c0112a8a:	ff                   	(bad)
c0112a8b:	ff 14 c3             	call   *(%ebx,%eax,8)
c0112a8e:	ff                   	(bad)
c0112a8f:	ff 14 c3             	call   *(%ebx,%eax,8)
c0112a92:	ff                   	(bad)
c0112a93:	ff 14 c3             	call   *(%ebx,%eax,8)
c0112a96:	ff                   	(bad)
c0112a97:	ff 14 c3             	call   *(%ebx,%eax,8)
c0112a9a:	ff                   	(bad)
c0112a9b:	ff 14 c3             	call   *(%ebx,%eax,8)
c0112a9e:	ff                   	(bad)
c0112a9f:	ff 20                	jmp    *(%eax)
c0112aa1:	c4                   	(bad)
c0112aa2:	ff                   	(bad)
c0112aa3:	ff 14 c3             	call   *(%ebx,%eax,8)
c0112aa6:	ff                   	(bad)
c0112aa7:	ff 14 c3             	call   *(%ebx,%eax,8)
c0112aaa:	ff                   	(bad)
c0112aab:	ff b0 c3 ff ff 14    	push   0x14ffffc3(%eax)
c0112ab1:	c3                   	ret
c0112ab2:	ff                   	(bad)
c0112ab3:	ff 14 c3             	call   *(%ebx,%eax,8)
c0112ab6:	ff                   	(bad)
c0112ab7:	ff 14 c3             	call   *(%ebx,%eax,8)
c0112aba:	ff                   	(bad)
c0112abb:	ff 14 c3             	call   *(%ebx,%eax,8)
c0112abe:	ff                   	(bad)
c0112abf:	ff 28                	ljmp   *(%eax)
c0112ac1:	c3                   	ret
c0112ac2:	ff                   	(bad)
c0112ac3:	ff 0a                	decl   (%edx)
c0112ac5:	09 4d 61             	or     %ecx,0x61(%ebp)
c0112ac8:	78 20                	js     c0112aea <__x86.get_pc_thunk.si+0xada>
c0112aca:	41                   	inc    %ecx
c0112acb:	64 64 72 65          	fs fs jb c0112b34 <__x86.get_pc_thunk.si+0xb24>
c0112acf:	73 73                	jae    c0112b44 <__x86.get_pc_thunk.si+0xb34>
c0112ad1:	61                   	popa
c0112ad2:	62 6c 65 20          	bound  %ebp,0x20(%ebp,%eiz,2)
c0112ad6:	49                   	dec    %ecx
c0112ad7:	44                   	inc    %esp
c0112ad8:	20 66 6f             	and    %ah,0x6f(%esi)
c0112adb:	72 20                	jb     c0112afd <__x86.get_pc_thunk.si+0xaed>
c0112add:	4c                   	dec    %esp
c0112ade:	6f                   	outsl  %ds:(%esi),(%dx)
c0112adf:	67 69 63 61 6c 20 50 	imul   $0x7250206c,0x61(%bp,%di),%esp
c0112ae6:	72 
c0112ae7:	6f                   	outsl  %ds:(%esi),(%dx)
c0112ae8:	63 65 73             	arpl   %sp,0x73(%ebp)
c0112aeb:	73 6f                	jae    c0112b5c <__x86.get_pc_thunk.si+0xb4c>
c0112aed:	72 73                	jb     c0112b62 <__x86.get_pc_thunk.si+0xb52>
c0112aef:	3a 20                	cmp    (%eax),%ah
c0112af1:	00 00                	add    %al,(%eax)
c0112af3:	00 0a                	add    %cl,(%edx)
c0112af5:	09 42 69             	or     %eax,0x69(%edx)
c0112af8:	74 20                	je     c0112b1a <__x86.get_pc_thunk.si+0xb0a>
c0112afa:	31 20                	xor    %esp,(%eax)
c0112afc:	3a 20                	cmp    (%eax),%ah
c0112afe:	56                   	push   %esi
c0112aff:	4d                   	dec    %ebp
c0112b00:	45                   	inc    %ebp
c0112b01:	2d 56 69 72 74       	sub    $0x74726956,%eax
c0112b06:	75 61                	jne    c0112b69 <__x86.get_pc_thunk.si+0xb59>
c0112b08:	6c                   	insb   (%dx),%es:(%edi)
c0112b09:	2d 38 30 38 36       	sub    $0x36383038,%eax
c0112b0e:	20 4d 6f             	and    %cl,0x6f(%ebp)
c0112b11:	64 65 20 45 6e       	fs and %al,%gs:0x6e(%ebp)
c0112b16:	68 61 6e 63 65       	push   $0x65636e61
c0112b1b:	6d                   	insl   (%dx),%es:(%edi)
c0112b1c:	65 6e                	outsb  %gs:(%esi),(%dx)
c0112b1e:	74 00                	je     c0112b20 <__x86.get_pc_thunk.si+0xb10>
c0112b20:	0a 09                	or     (%ecx),%cl
c0112b22:	42                   	inc    %edx
c0112b23:	69 74 20 32 20 3a 20 	imul   $0x44203a20,0x32(%eax,%eiz,1),%esi
c0112b2a:	44 
c0112b2b:	45                   	inc    %ebp
c0112b2c:	2d 44 65 62 75       	sub    $0x75626544,%eax
c0112b31:	67 67 69 6e 67 20 45 	addr16 imul $0x74784520,0x67(%bp),%ebp
c0112b38:	78 74 
c0112b3a:	65 6e                	outsb  %gs:(%esi),(%dx)
c0112b3c:	73 69                	jae    c0112ba7 <__x86.get_pc_thunk.si+0xb97>
c0112b3e:	6f                   	outsl  %ds:(%esi),(%dx)
c0112b3f:	6e                   	outsb  %ds:(%esi),(%dx)
c0112b40:	73 00                	jae    c0112b42 <__x86.get_pc_thunk.si+0xb32>
c0112b42:	00 00                	add    %al,(%eax)
c0112b44:	0a 09                	or     (%ecx),%cl
c0112b46:	42                   	inc    %edx
c0112b47:	69 74 20 33 20 3a 20 	imul   $0x50203a20,0x33(%eax,%eiz,1),%esi
c0112b4e:	50 
c0112b4f:	53                   	push   %ebx
c0112b50:	45                   	inc    %ebp
c0112b51:	2d 50 61 67 65       	sub    $0x65676150,%eax
c0112b56:	20 53 69             	and    %dl,0x69(%ebx)
c0112b59:	7a 65                	jp     c0112bc0 <__x86.get_pc_thunk.si+0xbb0>
c0112b5b:	20 45 78             	and    %al,0x78(%ebp)
c0112b5e:	74 65                	je     c0112bc5 <__x86.get_pc_thunk.si+0xbb5>
c0112b60:	6e                   	outsb  %ds:(%esi),(%dx)
c0112b61:	73 69                	jae    c0112bcc <__x86.get_pc_thunk.si+0xbbc>
c0112b63:	6f                   	outsl  %ds:(%esi),(%dx)
c0112b64:	6e                   	outsb  %ds:(%esi),(%dx)
c0112b65:	73 00                	jae    c0112b67 <__x86.get_pc_thunk.si+0xb57>
c0112b67:	00 0a                	add    %cl,(%edx)
c0112b69:	09 42 69             	or     %eax,0x69(%edx)
c0112b6c:	74 20                	je     c0112b8e <__x86.get_pc_thunk.si+0xb7e>
c0112b6e:	34 20                	xor    $0x20,%al
c0112b70:	3a 20                	cmp    (%eax),%ah
c0112b72:	54                   	push   %esp
c0112b73:	53                   	push   %ebx
c0112b74:	43                   	inc    %ebx
c0112b75:	2d 54 69 6d 65       	sub    $0x656d6954,%eax
c0112b7a:	20 53 74             	and    %dl,0x74(%ebx)
c0112b7d:	61                   	popa
c0112b7e:	6d                   	insl   (%dx),%es:(%edi)
c0112b7f:	70 20                	jo     c0112ba1 <__x86.get_pc_thunk.si+0xb91>
c0112b81:	43                   	inc    %ebx
c0112b82:	6f                   	outsl  %ds:(%esi),(%dx)
c0112b83:	75 6e                	jne    c0112bf3 <__x86.get_pc_thunk.si+0xbe3>
c0112b85:	74 65                	je     c0112bec <__x86.get_pc_thunk.si+0xbdc>
c0112b87:	72 00                	jb     c0112b89 <__x86.get_pc_thunk.si+0xb79>
c0112b89:	00 00                	add    %al,(%eax)
c0112b8b:	00 0a                	add    %cl,(%edx)
c0112b8d:	09 42 69             	or     %eax,0x69(%edx)
c0112b90:	74 20                	je     c0112bb2 <__x86.get_pc_thunk.si+0xba2>
c0112b92:	35 20 3a 20 4d       	xor    $0x4d203a20,%eax
c0112b97:	53                   	push   %ebx
c0112b98:	52                   	push   %edx
c0112b99:	2d 52 44 4d 53       	sub    $0x534d4452,%eax
c0112b9e:	52                   	push   %edx
c0112b9f:	20 61 6e             	and    %ah,0x6e(%ecx)
c0112ba2:	64 20 57 52          	and    %dl,%fs:0x52(%edi)
c0112ba6:	4d                   	dec    %ebp
c0112ba7:	53                   	push   %ebx
c0112ba8:	52                   	push   %edx
c0112ba9:	20 53 75             	and    %dl,0x75(%ebx)
c0112bac:	70 70                	jo     c0112c1e <__x86.get_pc_thunk.si+0xc0e>
c0112bae:	6f                   	outsl  %ds:(%esi),(%dx)
c0112baf:	72 74                	jb     c0112c25 <__x86.get_pc_thunk.si+0xc15>
c0112bb1:	00 00                	add    %al,(%eax)
c0112bb3:	00 0a                	add    %cl,(%edx)
c0112bb5:	09 42 69             	or     %eax,0x69(%edx)
c0112bb8:	74 20                	je     c0112bda <__x86.get_pc_thunk.si+0xbca>
c0112bba:	36 20 3a             	and    %bh,%ss:(%edx)
c0112bbd:	20 50 41             	and    %dl,0x41(%eax)
c0112bc0:	45                   	inc    %ebp
c0112bc1:	2d 50 68 79 73       	sub    $0x73796850,%eax
c0112bc6:	69 63 61 6c 20 41 64 	imul   $0x6441206c,0x61(%ebx),%esp
c0112bcd:	64 72 65             	fs jb  c0112c35 <__x86.get_pc_thunk.si+0xc25>
c0112bd0:	73 73                	jae    c0112c45 <__x86.get_pc_thunk.si+0xc35>
c0112bd2:	20 45 78             	and    %al,0x78(%ebp)
c0112bd5:	74 65                	je     c0112c3c <__x86.get_pc_thunk.si+0xc2c>
c0112bd7:	6e                   	outsb  %ds:(%esi),(%dx)
c0112bd8:	73 69                	jae    c0112c43 <__x86.get_pc_thunk.si+0xc33>
c0112bda:	6f                   	outsl  %ds:(%esi),(%dx)
c0112bdb:	6e                   	outsb  %ds:(%esi),(%dx)
c0112bdc:	73 00                	jae    c0112bde <__x86.get_pc_thunk.si+0xbce>
c0112bde:	00 00                	add    %al,(%eax)
c0112be0:	0a 50 72             	or     0x72(%eax),%dl
c0112be3:	6f                   	outsl  %ds:(%esi),(%dx)
c0112be4:	63 65 73             	arpl   %sp,0x73(%ebp)
c0112be7:	73 20                	jae    c0112c09 <__x86.get_pc_thunk.si+0xbf9>
c0112be9:	52                   	push   %edx
c0112bea:	65 67 69 73 74 65 72 	imul   $0x44207265,%gs:0x74(%bp,%di),%esi
c0112bf1:	20 44 
c0112bf3:	75 6d                	jne    c0112c62 <__x86.get_pc_thunk.si+0xc52>
c0112bf5:	70 3a                	jo     c0112c31 <__x86.get_pc_thunk.si+0xc21>
c0112bf7:	0a 20                	or     (%eax),%ah
c0112bf9:	20 20                	and    %ah,(%eax)
c0112bfb:	20 45 41             	and    %al,0x41(%ebp)
c0112bfe:	58                   	pop    %eax
c0112bff:	3a 20                	cmp    (%eax),%ah
c0112c01:	1b 5b 33             	sbb    0x33(%ebx),%ebx
c0112c04:	33 6d 30             	xor    0x30(%ebp),%ebp
c0112c07:	78 00                	js     c0112c09 <__x86.get_pc_thunk.si+0xbf9>
c0112c09:	00 00                	add    %al,(%eax)
c0112c0b:	00 0a                	add    %cl,(%edx)
c0112c0d:	50                   	push   %eax
c0112c0e:	61                   	popa
c0112c0f:	67 65 20 46 61       	and    %al,%gs:0x61(%bp)
c0112c14:	75 6c                	jne    c0112c82 <__x86.get_pc_thunk.si+0xc72>
c0112c16:	74 20                	je     c0112c38 <__x86.get_pc_thunk.si+0xc28>
c0112c18:	44                   	inc    %esp
c0112c19:	65 74 61             	gs je  c0112c7d <__x86.get_pc_thunk.si+0xc6d>
c0112c1c:	69 6c 73 3a 0a 20 20 	imul   $0x2020200a,0x3a(%ebx,%esi,2),%ebp
c0112c23:	20 
c0112c24:	20 56 69             	and    %dl,0x69(%esi)
c0112c27:	6f                   	outsl  %ds:(%esi),(%dx)
c0112c28:	6c                   	insb   (%dx),%es:(%edi)
c0112c29:	61                   	popa
c0112c2a:	74 69                	je     c0112c95 <__x86.get_pc_thunk.si+0xc85>
c0112c2c:	6f                   	outsl  %ds:(%esi),(%dx)
c0112c2d:	6e                   	outsb  %ds:(%esi),(%dx)
c0112c2e:	3a 09                	cmp    (%ecx),%cl
c0112c30:	00 00                	add    %al,(%eax)
c0112c32:	00 00                	add    %al,(%eax)
c0112c34:	5b                   	pop    %ebx
c0112c35:	30 78 30             	xor    %bh,0x30(%eax)
c0112c38:	30 5d 20             	xor    %bl,0x20(%ebp)
c0112c3b:	44                   	inc    %esp
c0112c3c:	69 76 69 64 65 20 62 	imul   $0x62206564,0x69(%esi),%esi
c0112c43:	79 20                	jns    c0112c65 <__x86.get_pc_thunk.si+0xc55>
c0112c45:	5a                   	pop    %edx
c0112c46:	65 72 6f             	gs jb  c0112cb8 <__x86.get_pc_thunk.si+0xca8>
c0112c49:	20 45 78             	and    %al,0x78(%ebp)
c0112c4c:	63 65 70             	arpl   %sp,0x70(%ebp)
c0112c4f:	74 69                	je     c0112cba <__x86.get_pc_thunk.si+0xcaa>
c0112c51:	6f                   	outsl  %ds:(%esi),(%dx)
c0112c52:	6e                   	outsb  %ds:(%esi),(%dx)
c0112c53:	00 5b 30             	add    %bl,0x30(%ebx)
c0112c56:	78 30                	js     c0112c88 <__x86.get_pc_thunk.si+0xc78>
c0112c58:	32 5d 20             	xor    0x20(%ebp),%bl
c0112c5b:	55                   	push   %ebp
c0112c5c:	6e                   	outsb  %ds:(%esi),(%dx)
c0112c5d:	68 61 6e 64 6c       	push   $0x6c646e61
c0112c62:	65 64 20 4e 6f       	gs and %cl,%fs:0x6f(%esi)
c0112c67:	6e                   	outsb  %ds:(%esi),(%dx)
c0112c68:	2d 6d 61 73 6b       	sub    $0x6b73616d,%eax
c0112c6d:	61                   	popa
c0112c6e:	62 6c 65 20          	bound  %ebp,0x20(%ebp,%eiz,2)
c0112c72:	49                   	dec    %ecx
c0112c73:	6e                   	outsb  %ds:(%esi),(%dx)
c0112c74:	74 65                	je     c0112cdb <__x86.get_pc_thunk.si+0xccb>
c0112c76:	72 72                	jb     c0112cea <__x86.get_pc_thunk.si+0xcda>
c0112c78:	75 70                	jne    c0112cea <__x86.get_pc_thunk.si+0xcda>
c0112c7a:	74 00                	je     c0112c7c <__x86.get_pc_thunk.si+0xc6c>
c0112c7c:	5b                   	pop    %ebx
c0112c7d:	30 78 30             	xor    %bh,0x30(%eax)
c0112c80:	35 5d 20 42 6f       	xor    $0x6f42205d,%eax
c0112c85:	75 6e                	jne    c0112cf5 <__x86.get_pc_thunk.si+0xce5>
c0112c87:	64 20 52 61          	and    %dl,%fs:0x61(%edx)
c0112c8b:	6e                   	outsb  %ds:(%esi),(%dx)
c0112c8c:	67 65 20 45 78       	and    %al,%gs:0x78(%di)
c0112c91:	63 65 65             	arpl   %sp,0x65(%ebp)
c0112c94:	64 65 64 20 45 78    	fs gs and %al,%fs:0x78(%ebp)
c0112c9a:	63 65 70             	arpl   %sp,0x70(%ebp)
c0112c9d:	74 69                	je     c0112d08 <__x86.get_pc_thunk.si+0xcf8>
c0112c9f:	6f                   	outsl  %ds:(%esi),(%dx)
c0112ca0:	6e                   	outsb  %ds:(%esi),(%dx)
c0112ca1:	00 00                	add    %al,(%eax)
c0112ca3:	00 5b 30             	add    %bl,0x30(%ebx)
c0112ca6:	78 30                	js     c0112cd8 <__x86.get_pc_thunk.si+0xcc8>
c0112ca8:	36 5d                	ss pop %ebp
c0112caa:	20 49 6e             	and    %cl,0x6e(%ecx)
c0112cad:	76 61                	jbe    c0112d10 <__x86.get_pc_thunk.si+0xd00>
c0112caf:	6c                   	insb   (%dx),%es:(%edi)
c0112cb0:	69 64 20 4f 70 63 6f 	imul   $0x646f6370,0x4f(%eax,%eiz,1),%esp
c0112cb7:	64 
c0112cb8:	65 2f                	gs das
c0112cba:	4f                   	dec    %edi
c0112cbb:	70 65                	jo     c0112d22 <__x86.get_pc_thunk.si+0xd12>
c0112cbd:	72 61                	jb     c0112d20 <__x86.get_pc_thunk.si+0xd10>
c0112cbf:	6e                   	outsb  %ds:(%esi),(%dx)
c0112cc0:	64 20 45 78          	and    %al,%fs:0x78(%ebp)
c0112cc4:	63 65 70             	arpl   %sp,0x70(%ebp)
c0112cc7:	74 69                	je     c0112d32 <__x86.get_pc_thunk.si+0xd22>
c0112cc9:	6f                   	outsl  %ds:(%esi),(%dx)
c0112cca:	6e                   	outsb  %ds:(%esi),(%dx)
c0112ccb:	00 5b 30             	add    %bl,0x30(%ebx)
c0112cce:	78 30                	js     c0112d00 <__x86.get_pc_thunk.si+0xcf0>
c0112cd0:	37                   	aaa
c0112cd1:	5d                   	pop    %ebp
c0112cd2:	20 44 65 76          	and    %al,0x76(%ebp,%eiz,2)
c0112cd6:	69 63 65 20 55 6e 61 	imul   $0x616e5520,0x65(%ebx),%esp
c0112cdd:	76 61                	jbe    c0112d40 <__x86.get_pc_thunk.si+0xd30>
c0112cdf:	69 6c 61 62 6c 65 20 	imul   $0x4520656c,0x62(%ecx,%eiz,2),%ebp
c0112ce6:	45 
c0112ce7:	78 63                	js     c0112d4c <__x86.get_pc_thunk.si+0xd3c>
c0112ce9:	65 70 74             	gs jo  c0112d60 <__x86.get_pc_thunk.si+0xd50>
c0112cec:	69 6f 6e 00 5b 30 78 	imul   $0x78305b00,0x6e(%edi),%ebp
c0112cf3:	30 39                	xor    %bh,(%ecx)
c0112cf5:	5d                   	pop    %ebp
c0112cf6:	20 43 6f             	and    %al,0x6f(%ebx)
c0112cf9:	70 72                	jo     c0112d6d <__x86.get_pc_thunk.si+0xd5d>
c0112cfb:	6f                   	outsl  %ds:(%esi),(%dx)
c0112cfc:	63 65 73             	arpl   %sp,0x73(%ebp)
c0112cff:	73 6f                	jae    c0112d70 <__x86.get_pc_thunk.si+0xd60>
c0112d01:	72 20                	jb     c0112d23 <__x86.get_pc_thunk.si+0xd13>
c0112d03:	53                   	push   %ebx
c0112d04:	65 67 6d             	gs insl (%dx),%es:(%di)
c0112d07:	65 6e                	outsb  %gs:(%esi),(%dx)
c0112d09:	74 20                	je     c0112d2b <__x86.get_pc_thunk.si+0xd1b>
c0112d0b:	4f                   	dec    %edi
c0112d0c:	76 65                	jbe    c0112d73 <__x86.get_pc_thunk.si+0xd63>
c0112d0e:	72 72                	jb     c0112d82 <__x86.get_pc_thunk.si+0xd72>
c0112d10:	75 6e                	jne    c0112d80 <__x86.get_pc_thunk.si+0xd70>
c0112d12:	00 00                	add    %al,(%eax)
c0112d14:	5b                   	pop    %ebx
c0112d15:	30 78 30             	xor    %bh,0x30(%eax)
c0112d18:	42                   	inc    %edx
c0112d19:	5d                   	pop    %ebp
c0112d1a:	20 41 62             	and    %al,0x62(%ecx)
c0112d1d:	73 65                	jae    c0112d84 <__x86.get_pc_thunk.si+0xd74>
c0112d1f:	6e                   	outsb  %ds:(%esi),(%dx)
c0112d20:	74 20                	je     c0112d42 <__x86.get_pc_thunk.si+0xd32>
c0112d22:	53                   	push   %ebx
c0112d23:	65 67 6d             	gs insl (%dx),%es:(%di)
c0112d26:	65 6e                	outsb  %gs:(%esi),(%dx)
c0112d28:	74 20                	je     c0112d4a <__x86.get_pc_thunk.si+0xd3a>
c0112d2a:	45                   	inc    %ebp
c0112d2b:	78 63                	js     c0112d90 <__x86.get_pc_thunk.si+0xd80>
c0112d2d:	65 70 74             	gs jo  c0112da4 <__x86.get_pc_thunk.si+0xd94>
c0112d30:	69 6f 6e 00 5b 30 78 	imul   $0x78305b00,0x6e(%edi),%ebp
c0112d37:	30 44 5d 20          	xor    %al,0x20(%ebp,%ebx,2)
c0112d3b:	47                   	inc    %edi
c0112d3c:	65 6e                	outsb  %gs:(%esi),(%dx)
c0112d3e:	65 72 61             	gs jb  c0112da2 <__x86.get_pc_thunk.si+0xd92>
c0112d41:	6c                   	insb   (%dx),%es:(%edi)
c0112d42:	20 50 72             	and    %dl,0x72(%eax)
c0112d45:	6f                   	outsl  %ds:(%esi),(%dx)
c0112d46:	74 65                	je     c0112dad <__x86.get_pc_thunk.si+0xd9d>
c0112d48:	63 74 69 6f          	arpl   %si,0x6f(%ecx,%ebp,2)
c0112d4c:	6e                   	outsb  %ds:(%esi),(%dx)
c0112d4d:	20 46 61             	and    %al,0x61(%esi)
c0112d50:	75 6c                	jne    c0112dbe <__x86.get_pc_thunk.si+0xdae>
c0112d52:	74 00                	je     c0112d54 <__x86.get_pc_thunk.si+0xd44>
c0112d54:	5b                   	pop    %ebx
c0112d55:	30 78 31             	xor    %bh,0x31(%eax)
c0112d58:	33 5d 20             	xor    0x20(%ebp),%ebx
c0112d5b:	53                   	push   %ebx
c0112d5c:	49                   	dec    %ecx
c0112d5d:	4d                   	dec    %ebp
c0112d5e:	44                   	inc    %esp
c0112d5f:	20 46 6c             	and    %al,0x6c(%esi)
c0112d62:	6f                   	outsl  %ds:(%esi),(%dx)
c0112d63:	61                   	popa
c0112d64:	74 69                	je     c0112dcf <__x86.get_pc_thunk.si+0xdbf>
c0112d66:	6e                   	outsb  %ds:(%esi),(%dx)
c0112d67:	67 20 45 78          	and    %al,0x78(%di)
c0112d6b:	63 65 70             	arpl   %sp,0x70(%ebp)
c0112d6e:	74 69                	je     c0112dd9 <__x86.get_pc_thunk.si+0xdc9>
c0112d70:	6f                   	outsl  %ds:(%esi),(%dx)
c0112d71:	6e                   	outsb  %ds:(%esi),(%dx)
c0112d72:	00 00                	add    %al,(%eax)
c0112d74:	5b                   	pop    %ebx
c0112d75:	30 78 31             	xor    %bh,0x31(%eax)
c0112d78:	35 5d 20 43 6f       	xor    $0x6f43205d,%eax
c0112d7d:	6e                   	outsb  %ds:(%esi),(%dx)
c0112d7e:	74 72                	je     c0112df2 <__x86.get_pc_thunk.si+0xde2>
c0112d80:	6f                   	outsl  %ds:(%esi),(%dx)
c0112d81:	6c                   	insb   (%dx),%es:(%edi)
c0112d82:	20 50 72             	and    %dl,0x72(%eax)
c0112d85:	6f                   	outsl  %ds:(%esi),(%dx)
c0112d86:	74 65                	je     c0112ded <__x86.get_pc_thunk.si+0xddd>
c0112d88:	63 74 69 6f          	arpl   %si,0x6f(%ecx,%ebp,2)
c0112d8c:	6e                   	outsb  %ds:(%esi),(%dx)
c0112d8d:	20 45 78             	and    %al,0x78(%ebp)
c0112d90:	63 65 70             	arpl   %sp,0x70(%ebp)
c0112d93:	74 69                	je     c0112dfe <__x86.get_pc_thunk.si+0xdee>
c0112d95:	6f                   	outsl  %ds:(%esi),(%dx)
c0112d96:	6e                   	outsb  %ds:(%esi),(%dx)
c0112d97:	00 5b 30             	add    %bl,0x30(%ebx)
c0112d9a:	78 31                	js     c0112dcd <__x86.get_pc_thunk.si+0xdbd>
c0112d9c:	43                   	inc    %ebx
c0112d9d:	5d                   	pop    %ebp
c0112d9e:	20 48 79             	and    %cl,0x79(%eax)
c0112da1:	70 65                	jo     c0112e08 <__x86.get_pc_thunk.si+0xdf8>
c0112da3:	72 76                	jb     c0112e1b <__x86.get_pc_thunk.si+0xe0b>
c0112da5:	69 73 6f 72 20 49 6e 	imul   $0x6e492072,0x6f(%ebx),%esi
c0112dac:	74 72                	je     c0112e20 <__x86.get_pc_thunk.si+0xe10>
c0112dae:	75 73                	jne    c0112e23 <__x86.get_pc_thunk.si+0xe13>
c0112db0:	69 6f 6e 20 45 78 63 	imul   $0x63784520,0x6e(%edi),%ebp
c0112db7:	65 70 74             	gs jo  c0112e2e <__x86.get_pc_thunk.si+0xe1e>
c0112dba:	69 6f 6e 00 00 00 5b 	imul   $0x5b000000,0x6e(%edi),%ebp
c0112dc1:	30 78 31             	xor    %bh,0x31(%eax)
c0112dc4:	44                   	inc    %esp
c0112dc5:	5d                   	pop    %ebp
c0112dc6:	20 56 4d             	and    %dl,0x4d(%esi)
c0112dc9:	4d                   	dec    %ebp
c0112dca:	20 43 6f             	and    %al,0x6f(%ebx)
c0112dcd:	6d                   	insl   (%dx),%es:(%edi)
c0112dce:	6d                   	insl   (%dx),%es:(%edi)
c0112dcf:	75 6e                	jne    c0112e3f <__x86.get_pc_thunk.si+0xe2f>
c0112dd1:	69 63 61 74 69 6f 6e 	imul   $0x6e6f6974,0x61(%ebx),%esp
c0112dd8:	73 20                	jae    c0112dfa <__x86.get_pc_thunk.si+0xdea>
c0112dda:	45                   	inc    %ebp
c0112ddb:	78 63                	js     c0112e40 <__x86.get_pc_thunk.si+0xe30>
c0112ddd:	65 70 74             	gs jo  c0112e54 <__x86.get_pc_thunk.si+0xe44>
c0112de0:	69 6f 6e 00 c7 d1 ff 	imul   $0xffd1c700,0x6e(%edi),%ebp
c0112de7:	ff f0                	push   %eax
c0112de9:	d1 ff                	sar    %edi
c0112deb:	ff 20                	jmp    *(%eax)
c0112ded:	d2 ff                	sar    %cl,%bh
c0112def:	ff                   	(bad)
c0112df0:	7c d1                	jl     c0112dc3 <__x86.get_pc_thunk.si+0xdb3>
c0112df2:	ff                   	(bad)
c0112df3:	ff                   	(bad)
c0112df4:	7c d1                	jl     c0112dc7 <__x86.get_pc_thunk.si+0xdb7>
c0112df6:	ff                   	(bad)
c0112df7:	ff                   	(bad)
c0112df8:	7c d1                	jl     c0112dcb <__x86.get_pc_thunk.si+0xdbb>
c0112dfa:	ff                   	(bad)
c0112dfb:	ff                   	(bad)
c0112dfc:	7c d1                	jl     c0112dcf <__x86.get_pc_thunk.si+0xdbf>
c0112dfe:	ff                   	(bad)
c0112dff:	ff                   	(bad)
c0112e00:	7c d1                	jl     c0112dd3 <__x86.get_pc_thunk.si+0xdc3>
c0112e02:	ff                   	(bad)
c0112e03:	ff                   	(bad)
c0112e04:	7c d1                	jl     c0112dd7 <__x86.get_pc_thunk.si+0xdc7>
c0112e06:	ff                   	(bad)
c0112e07:	ff                   	(bad)
c0112e08:	7c d1                	jl     c0112ddb <__x86.get_pc_thunk.si+0xdcb>
c0112e0a:	ff                   	(bad)
c0112e0b:	ff                   	(bad)
c0112e0c:	7c d1                	jl     c0112ddf <__x86.get_pc_thunk.si+0xdcf>
c0112e0e:	ff                   	(bad)
c0112e0f:	ff                   	(bad)
c0112e10:	7c d1                	jl     c0112de3 <__x86.get_pc_thunk.si+0xdd3>
c0112e12:	ff                   	(bad)
c0112e13:	ff                   	(bad)
c0112e14:	7c d1                	jl     c0112de7 <__x86.get_pc_thunk.si+0xdd7>
c0112e16:	ff                   	(bad)
c0112e17:	ff                   	(bad)
c0112e18:	7c d1                	jl     c0112deb <__x86.get_pc_thunk.si+0xddb>
c0112e1a:	ff                   	(bad)
c0112e1b:	ff 98 d1 ff ff 7c    	lcall  *0x7cffffd1(%eax)
c0112e21:	d1 ff                	sar    %edi
c0112e23:	ff                   	(bad)
c0112e24:	7c d1                	jl     c0112df7 <__x86.get_pc_thunk.si+0xde7>
c0112e26:	ff                   	(bad)
c0112e27:	ff 40 d3             	incl   -0x2d(%eax)
c0112e2a:	ff                   	(bad)
c0112e2b:	ff                   	(bad)
c0112e2c:	7c d1                	jl     c0112dff <__x86.get_pc_thunk.si+0xdef>
c0112e2e:	ff                   	(bad)
c0112e2f:	ff                   	(bad)
c0112e30:	7c d1                	jl     c0112e03 <__x86.get_pc_thunk.si+0xdf3>
c0112e32:	ff                   	(bad)
c0112e33:	ff                   	(bad)
c0112e34:	7c d1                	jl     c0112e07 <__x86.get_pc_thunk.si+0xdf7>
c0112e36:	ff                   	(bad)
c0112e37:	ff                   	(bad)
c0112e38:	7c d1                	jl     c0112e0b <__x86.get_pc_thunk.si+0xdfb>
c0112e3a:	ff                   	(bad)
c0112e3b:	ff                   	(bad)
c0112e3c:	d8 d2                	fcom   %st(2)
c0112e3e:	ff                   	(bad)
c0112e3f:	ff 00                	incl   (%eax)
c0112e41:	8e 00                	mov    (%eax),%es
	...

Disassembly of section .eh_frame:

c0113000 <.eh_frame>:
c0113000:	14 00                	adc    $0x0,%al
c0113002:	00 00                	add    %al,(%eax)
c0113004:	00 00                	add    %al,(%eax)
c0113006:	00 00                	add    %al,(%eax)
c0113008:	01 7a 52             	add    %edi,0x52(%edx)
c011300b:	00 01                	add    %al,(%ecx)
c011300d:	7c 08                	jl     c0113017 <__x86.get_pc_thunk.si+0x1007>
c011300f:	01 1b                	add    %ebx,(%ebx)
c0113011:	0c 04                	or     $0x4,%al
c0113013:	04 88                	add    $0x88,%al
c0113015:	01 00                	add    %eax,(%eax)
c0113017:	00 94 00 00 00 1c 00 	add    %dl,0x1c0000(%eax,%eax,1)
c011301e:	00 00                	add    %al,(%eax)
c0113020:	00 d0                	add    %dl,%al
c0113022:	ff                   	(bad)
c0113023:	ff 72 01             	push   0x1(%edx)
c0113026:	00 00                	add    %al,(%eax)
c0113028:	00 41 0e             	add    %al,0xe(%ecx)
c011302b:	08 85 02 41 0e 0c    	or     %al,0xc0e4102(%ebp)
c0113031:	87 03                	xchg   %eax,(%ebx)
c0113033:	41                   	inc    %ecx
c0113034:	0e                   	push   %cs
c0113035:	10 86 04 41 0e 14    	adc    %al,0x140e4104(%esi)
c011303b:	83 05 4e 0e 3c 4b 0e 	addl   $0xe,0x4b3c0e4e
c0113042:	40                   	inc    %eax
c0113043:	56                   	push   %esi
c0113044:	0e                   	push   %cs
c0113045:	30 78 0e             	xor    %bh,0xe(%eax)
c0113048:	34 43                	xor    $0x43,%al
c011304a:	0e                   	push   %cs
c011304b:	38 42 0e             	cmp    %al,0xe(%edx)
c011304e:	3c 41                	cmp    $0x41,%al
c0113050:	0e                   	push   %cs
c0113051:	40                   	inc    %eax
c0113052:	48                   	dec    %eax
c0113053:	0e                   	push   %cs
c0113054:	34 43                	xor    $0x43,%al
c0113056:	0e                   	push   %cs
c0113057:	38 43 0e             	cmp    %al,0xe(%ebx)
c011305a:	3c 44                	cmp    $0x44,%al
c011305c:	0e                   	push   %cs
c011305d:	40                   	inc    %eax
c011305e:	5d                   	pop    %ebp
c011305f:	0e                   	push   %cs
c0113060:	30 60 0e             	xor    %ah,0xe(%eax)
c0113063:	3c 44                	cmp    $0x44,%al
c0113065:	0e                   	push   %cs
c0113066:	40                   	inc    %eax
c0113067:	5a                   	pop    %edx
c0113068:	0e                   	push   %cs
c0113069:	30 51 0e             	xor    %dl,0xe(%ecx)
c011306c:	34 4e                	xor    $0x4e,%al
c011306e:	0e                   	push   %cs
c011306f:	38 41 0e             	cmp    %al,0xe(%ecx)
c0113072:	3c 47                	cmp    $0x47,%al
c0113074:	0e                   	push   %cs
c0113075:	40                   	inc    %eax
c0113076:	54                   	push   %esp
c0113077:	0e                   	push   %cs
c0113078:	34 48                	xor    $0x48,%al
c011307a:	0e                   	push   %cs
c011307b:	38 41 0e             	cmp    %al,0xe(%ecx)
c011307e:	3c 41                	cmp    $0x41,%al
c0113080:	0e                   	push   %cs
c0113081:	40                   	inc    %eax
c0113082:	54                   	push   %esp
c0113083:	0e                   	push   %cs
c0113084:	34 48                	xor    $0x48,%al
c0113086:	0e                   	push   %cs
c0113087:	38 41 0e             	cmp    %al,0xe(%ecx)
c011308a:	3c 47                	cmp    $0x47,%al
c011308c:	0e                   	push   %cs
c011308d:	40                   	inc    %eax
c011308e:	54                   	push   %esp
c011308f:	0e                   	push   %cs
c0113090:	34 48                	xor    $0x48,%al
c0113092:	0e                   	push   %cs
c0113093:	38 41 0e             	cmp    %al,0xe(%ecx)
c0113096:	3c 41                	cmp    $0x41,%al
c0113098:	0e                   	push   %cs
c0113099:	40                   	inc    %eax
c011309a:	48                   	dec    %eax
c011309b:	0e                   	push   %cs
c011309c:	14 41                	adc    $0x41,%al
c011309e:	c3                   	ret
c011309f:	0e                   	push   %cs
c01130a0:	10 41 c6             	adc    %al,-0x3a(%ecx)
c01130a3:	0e                   	push   %cs
c01130a4:	0c 41                	or     $0x41,%al
c01130a6:	c7                   	(bad)
c01130a7:	0e                   	push   %cs
c01130a8:	08 41 c5             	or     %al,-0x3b(%ecx)
c01130ab:	0e                   	push   %cs
c01130ac:	04 00                	add    $0x0,%al
c01130ae:	00 00                	add    %al,(%eax)
c01130b0:	10 00                	adc    %al,(%eax)
c01130b2:	00 00                	add    %al,(%eax)
c01130b4:	b4 00                	mov    $0x0,%ah
c01130b6:	00 00                	add    %al,(%eax)
c01130b8:	48                   	dec    %eax
c01130b9:	ef                   	out    %eax,(%dx)
c01130ba:	ff                   	(bad)
c01130bb:	ff 04 00             	incl   (%eax,%eax,1)
c01130be:	00 00                	add    %al,(%eax)
c01130c0:	00 00                	add    %al,(%eax)
c01130c2:	00 00                	add    %al,(%eax)
c01130c4:	90                   	nop
c01130c5:	00 00                	add    %al,(%eax)
c01130c7:	00 c8                	add    %cl,%al
c01130c9:	00 00                	add    %al,(%eax)
c01130cb:	00 24 d1             	add    %ah,(%ecx,%edx,8)
c01130ce:	ff                   	(bad)
c01130cf:	ff b7 00 00 00 00    	push   0x0(%edi)
c01130d5:	41                   	inc    %ecx
c01130d6:	0e                   	push   %cs
c01130d7:	08 83 02 4e 0e 18    	or     %al,0x180e4e02(%ebx)
c01130dd:	42                   	inc    %edx
c01130de:	0e                   	push   %cs
c01130df:	1c 45                	sbb    $0x45,%al
c01130e1:	0e                   	push   %cs
c01130e2:	20 46 0e             	and    %al,0xe(%esi)
c01130e5:	1c 41                	sbb    $0x41,%al
c01130e7:	0e                   	push   %cs
c01130e8:	18 45 0e             	sbb    %al,0xe(%ebp)
c01130eb:	1c 45                	sbb    $0x45,%al
c01130ed:	0e                   	push   %cs
c01130ee:	20 46 0e             	and    %al,0xe(%esi)
c01130f1:	1c 41                	sbb    $0x41,%al
c01130f3:	0e                   	push   %cs
c01130f4:	18 42 0e             	sbb    %al,0xe(%edx)
c01130f7:	1c 45                	sbb    $0x45,%al
c01130f9:	0e                   	push   %cs
c01130fa:	20 46 0e             	and    %al,0xe(%esi)
c01130fd:	1c 41                	sbb    $0x41,%al
c01130ff:	0e                   	push   %cs
c0113100:	18 42 0e             	sbb    %al,0xe(%edx)
c0113103:	1c 45                	sbb    $0x45,%al
c0113105:	0e                   	push   %cs
c0113106:	20 46 0e             	and    %al,0xe(%esi)
c0113109:	1c 41                	sbb    $0x41,%al
c011310b:	0e                   	push   %cs
c011310c:	18 42 0e             	sbb    %al,0xe(%edx)
c011310f:	1c 45                	sbb    $0x45,%al
c0113111:	0e                   	push   %cs
c0113112:	20 46 0e             	and    %al,0xe(%esi)
c0113115:	1c 41                	sbb    $0x41,%al
c0113117:	0e                   	push   %cs
c0113118:	18 45 0e             	sbb    %al,0xe(%ebp)
c011311b:	1c 45                	sbb    $0x45,%al
c011311d:	0e                   	push   %cs
c011311e:	20 46 0e             	and    %al,0xe(%esi)
c0113121:	1c 41                	sbb    $0x41,%al
c0113123:	0e                   	push   %cs
c0113124:	18 42 0e             	sbb    %al,0xe(%edx)
c0113127:	1c 45                	sbb    $0x45,%al
c0113129:	0e                   	push   %cs
c011312a:	20 46 0e             	and    %al,0xe(%esi)
c011312d:	1c 41                	sbb    $0x41,%al
c011312f:	0e                   	push   %cs
c0113130:	18 45 0e             	sbb    %al,0xe(%ebp)
c0113133:	1c 45                	sbb    $0x45,%al
c0113135:	0e                   	push   %cs
c0113136:	20 54 0e 10          	and    %dl,0x10(%esi,%ecx,1)
c011313a:	47                   	inc    %edi
c011313b:	0a 0e                	or     (%esi),%cl
c011313d:	08 41 c3             	or     %al,-0x3d(%ecx)
c0113140:	0e                   	push   %cs
c0113141:	04 43                	add    $0x43,%al
c0113143:	0b 43 0e             	or     0xe(%ebx),%eax
c0113146:	18 42 0e             	sbb    %al,0xe(%edx)
c0113149:	1c 45                	sbb    $0x45,%al
c011314b:	0e                   	push   %cs
c011314c:	20 48 0e             	and    %cl,0xe(%eax)
c011314f:	10 43 0e             	adc    %al,0xe(%ebx)
c0113152:	08 41 c3             	or     %al,-0x3d(%ecx)
c0113155:	0e                   	push   %cs
c0113156:	04 00                	add    $0x0,%al
c0113158:	14 01                	adc    $0x1,%al
c011315a:	00 00                	add    %al,(%eax)
c011315c:	5c                   	pop    %esp
c011315d:	01 00                	add    %eax,(%eax)
c011315f:	00 50 d1             	add    %dl,-0x2f(%eax)
c0113162:	ff                   	(bad)
c0113163:	ff a6 03 00 00 00    	jmp    *0x3(%esi)
c0113169:	41                   	inc    %ecx
c011316a:	0e                   	push   %cs
c011316b:	08 85 02 41 0e 0c    	or     %al,0xc0e4102(%ebp)
c0113171:	87 03                	xchg   %eax,(%ebx)
c0113173:	41                   	inc    %ecx
c0113174:	0e                   	push   %cs
c0113175:	10 86 04 41 0e 14    	adc    %al,0x140e4104(%esi)
c011317b:	83 05 4e 0e 50 02 49 	addl   $0x49,0x2500e4e
c0113182:	0e                   	push   %cs
c0113183:	5c                   	pop    %esp
c0113184:	41                   	inc    %ecx
c0113185:	0e                   	push   %cs
c0113186:	60                   	pusha
c0113187:	48                   	dec    %eax
c0113188:	0e                   	push   %cs
c0113189:	50                   	push   %eax
c011318a:	4f                   	dec    %edi
c011318b:	0a 0e                	or     (%esi),%cl
c011318d:	14 41                	adc    $0x41,%al
c011318f:	c3                   	ret
c0113190:	0e                   	push   %cs
c0113191:	10 41 c6             	adc    %al,-0x3a(%ecx)
c0113194:	0e                   	push   %cs
c0113195:	0c 41                	or     $0x41,%al
c0113197:	c7                   	(bad)
c0113198:	0e                   	push   %cs
c0113199:	08 41 c5             	or     %al,-0x3b(%ecx)
c011319c:	0e                   	push   %cs
c011319d:	04 41                	add    $0x41,%al
c011319f:	0b 47 0e             	or     0xe(%edi),%eax
c01131a2:	54                   	push   %esp
c01131a3:	4b                   	dec    %ebx
c01131a4:	0e                   	push   %cs
c01131a5:	58                   	pop    %eax
c01131a6:	45                   	inc    %ebp
c01131a7:	0e                   	push   %cs
c01131a8:	5c                   	pop    %esp
c01131a9:	42                   	inc    %edx
c01131aa:	0e                   	push   %cs
c01131ab:	60                   	pusha
c01131ac:	51                   	push   %ecx
c01131ad:	0e                   	push   %cs
c01131ae:	50                   	push   %eax
c01131af:	51                   	push   %ecx
c01131b0:	0e                   	push   %cs
c01131b1:	5c                   	pop    %esp
c01131b2:	45                   	inc    %ebp
c01131b3:	0e                   	push   %cs
c01131b4:	60                   	pusha
c01131b5:	48                   	dec    %eax
c01131b6:	0e                   	push   %cs
c01131b7:	50                   	push   %eax
c01131b8:	47                   	inc    %edi
c01131b9:	0e                   	push   %cs
c01131ba:	58                   	pop    %eax
c01131bb:	49                   	dec    %ecx
c01131bc:	0e                   	push   %cs
c01131bd:	5c                   	pop    %esp
c01131be:	45                   	inc    %ebp
c01131bf:	0e                   	push   %cs
c01131c0:	60                   	pusha
c01131c1:	50                   	push   %eax
c01131c2:	0e                   	push   %cs
c01131c3:	50                   	push   %eax
c01131c4:	7e 0e                	jle    c01131d4 <__x86.get_pc_thunk.si+0x11c4>
c01131c6:	5c                   	pop    %esp
c01131c7:	45                   	inc    %ebp
c01131c8:	0e                   	push   %cs
c01131c9:	60                   	pusha
c01131ca:	48                   	dec    %eax
c01131cb:	0e                   	push   %cs
c01131cc:	50                   	push   %eax
c01131cd:	47                   	inc    %edi
c01131ce:	0e                   	push   %cs
c01131cf:	58                   	pop    %eax
c01131d0:	49                   	dec    %ecx
c01131d1:	0e                   	push   %cs
c01131d2:	5c                   	pop    %esp
c01131d3:	45                   	inc    %ebp
c01131d4:	0e                   	push   %cs
c01131d5:	60                   	pusha
c01131d6:	50                   	push   %eax
c01131d7:	0e                   	push   %cs
c01131d8:	50                   	push   %eax
c01131d9:	62 0e                	bound  %ecx,(%esi)
c01131db:	54                   	push   %esp
c01131dc:	51                   	push   %ecx
c01131dd:	0e                   	push   %cs
c01131de:	58                   	pop    %eax
c01131df:	45                   	inc    %ebp
c01131e0:	0e                   	push   %cs
c01131e1:	5c                   	pop    %esp
c01131e2:	42                   	inc    %edx
c01131e3:	0e                   	push   %cs
c01131e4:	60                   	pusha
c01131e5:	48                   	dec    %eax
c01131e6:	0e                   	push   %cs
c01131e7:	50                   	push   %eax
c01131e8:	4c                   	dec    %esp
c01131e9:	0e                   	push   %cs
c01131ea:	5c                   	pop    %esp
c01131eb:	45                   	inc    %ebp
c01131ec:	0e                   	push   %cs
c01131ed:	60                   	pusha
c01131ee:	48                   	dec    %eax
c01131ef:	0e                   	push   %cs
c01131f0:	50                   	push   %eax
c01131f1:	47                   	inc    %edi
c01131f2:	0e                   	push   %cs
c01131f3:	58                   	pop    %eax
c01131f4:	49                   	dec    %ecx
c01131f5:	0e                   	push   %cs
c01131f6:	5c                   	pop    %esp
c01131f7:	45                   	inc    %ebp
c01131f8:	0e                   	push   %cs
c01131f9:	60                   	pusha
c01131fa:	50                   	push   %eax
c01131fb:	0e                   	push   %cs
c01131fc:	50                   	push   %eax
c01131fd:	5e                   	pop    %esi
c01131fe:	0e                   	push   %cs
c01131ff:	5c                   	pop    %esp
c0113200:	45                   	inc    %ebp
c0113201:	0e                   	push   %cs
c0113202:	60                   	pusha
c0113203:	48                   	dec    %eax
c0113204:	0e                   	push   %cs
c0113205:	50                   	push   %eax
c0113206:	47                   	inc    %edi
c0113207:	0e                   	push   %cs
c0113208:	58                   	pop    %eax
c0113209:	49                   	dec    %ecx
c011320a:	0e                   	push   %cs
c011320b:	5c                   	pop    %esp
c011320c:	45                   	inc    %ebp
c011320d:	0e                   	push   %cs
c011320e:	60                   	pusha
c011320f:	50                   	push   %eax
c0113210:	0e                   	push   %cs
c0113211:	50                   	push   %eax
c0113212:	62 0e                	bound  %ecx,(%esi)
c0113214:	54                   	push   %esp
c0113215:	4b                   	dec    %ebx
c0113216:	0e                   	push   %cs
c0113217:	58                   	pop    %eax
c0113218:	45                   	inc    %ebp
c0113219:	0e                   	push   %cs
c011321a:	5c                   	pop    %esp
c011321b:	42                   	inc    %edx
c011321c:	0e                   	push   %cs
c011321d:	60                   	pusha
c011321e:	51                   	push   %ecx
c011321f:	0e                   	push   %cs
c0113220:	50                   	push   %eax
c0113221:	59                   	pop    %ecx
c0113222:	0e                   	push   %cs
c0113223:	5c                   	pop    %esp
c0113224:	45                   	inc    %ebp
c0113225:	0e                   	push   %cs
c0113226:	60                   	pusha
c0113227:	48                   	dec    %eax
c0113228:	0e                   	push   %cs
c0113229:	50                   	push   %eax
c011322a:	47                   	inc    %edi
c011322b:	0e                   	push   %cs
c011322c:	58                   	pop    %eax
c011322d:	49                   	dec    %ecx
c011322e:	0e                   	push   %cs
c011322f:	5c                   	pop    %esp
c0113230:	45                   	inc    %ebp
c0113231:	0e                   	push   %cs
c0113232:	60                   	pusha
c0113233:	50                   	push   %eax
c0113234:	0e                   	push   %cs
c0113235:	50                   	push   %eax
c0113236:	6e                   	outsb  %ds:(%esi),(%dx)
c0113237:	0e                   	push   %cs
c0113238:	5c                   	pop    %esp
c0113239:	45                   	inc    %ebp
c011323a:	0e                   	push   %cs
c011323b:	60                   	pusha
c011323c:	48                   	dec    %eax
c011323d:	0e                   	push   %cs
c011323e:	50                   	push   %eax
c011323f:	49                   	dec    %ecx
c0113240:	0e                   	push   %cs
c0113241:	58                   	pop    %eax
c0113242:	47                   	inc    %edi
c0113243:	0e                   	push   %cs
c0113244:	5c                   	pop    %esp
c0113245:	45                   	inc    %ebp
c0113246:	0e                   	push   %cs
c0113247:	60                   	pusha
c0113248:	4d                   	dec    %ebp
c0113249:	0e                   	push   %cs
c011324a:	50                   	push   %eax
c011324b:	54                   	push   %esp
c011324c:	0e                   	push   %cs
c011324d:	54                   	push   %esp
c011324e:	4b                   	dec    %ebx
c011324f:	0e                   	push   %cs
c0113250:	58                   	pop    %eax
c0113251:	45                   	inc    %ebp
c0113252:	0e                   	push   %cs
c0113253:	5c                   	pop    %esp
c0113254:	42                   	inc    %edx
c0113255:	0e                   	push   %cs
c0113256:	60                   	pusha
c0113257:	51                   	push   %ecx
c0113258:	0e                   	push   %cs
c0113259:	50                   	push   %eax
c011325a:	52                   	push   %edx
c011325b:	0e                   	push   %cs
c011325c:	5c                   	pop    %esp
c011325d:	45                   	inc    %ebp
c011325e:	0e                   	push   %cs
c011325f:	60                   	pusha
c0113260:	48                   	dec    %eax
c0113261:	0e                   	push   %cs
c0113262:	50                   	push   %eax
c0113263:	47                   	inc    %edi
c0113264:	0e                   	push   %cs
c0113265:	58                   	pop    %eax
c0113266:	49                   	dec    %ecx
c0113267:	0e                   	push   %cs
c0113268:	5c                   	pop    %esp
c0113269:	45                   	inc    %ebp
c011326a:	0e                   	push   %cs
c011326b:	60                   	pusha
c011326c:	50                   	push   %eax
c011326d:	0e                   	push   %cs
c011326e:	50                   	push   %eax
c011326f:	00 40 00             	add    %al,0x0(%eax)
c0113272:	00 00                	add    %al,(%eax)
c0113274:	74 02                	je     c0113278 <__x86.get_pc_thunk.si+0x1268>
c0113276:	00 00                	add    %al,(%eax)
c0113278:	e8 d3 ff ff 5b       	call   1c113250 <MAGIC+0x63824e>
c011327d:	00 00                	add    %al,(%eax)
c011327f:	00 00                	add    %al,(%eax)
c0113281:	41                   	inc    %ecx
c0113282:	0e                   	push   %cs
c0113283:	08 87 02 41 0e 0c    	or     %al,0xc0e4102(%edi)
c0113289:	86 03                	xchg   %al,(%ebx)
c011328b:	41                   	inc    %ecx
c011328c:	0e                   	push   %cs
c011328d:	10 83 04 60 0e 1c    	adc    %al,0x1c0e6004(%ebx)
c0113293:	45                   	inc    %ebp
c0113294:	0e                   	push   %cs
c0113295:	20 48 0e             	and    %cl,0xe(%eax)
c0113298:	10 49 0e             	adc    %cl,0xe(%ecx)
c011329b:	18 47 0e             	sbb    %al,0xe(%edi)
c011329e:	1c 45                	sbb    $0x45,%al
c01132a0:	0e                   	push   %cs
c01132a1:	20 4c 0e 10          	and    %cl,0x10(%esi,%ecx,1)
c01132a5:	47                   	inc    %edi
c01132a6:	c3                   	ret
c01132a7:	0e                   	push   %cs
c01132a8:	0c 41                	or     $0x41,%al
c01132aa:	c6                   	(bad)
c01132ab:	0e                   	push   %cs
c01132ac:	08 41 c7             	or     %al,-0x39(%ecx)
c01132af:	0e                   	push   %cs
c01132b0:	04 00                	add    $0x0,%al
c01132b2:	00 00                	add    %al,(%eax)
c01132b4:	64 00 00             	add    %al,%fs:(%eax)
c01132b7:	00 b8 02 00 00 04    	add    %bh,0x4000002(%eax)
c01132bd:	d4 ff                	aam    $0xff
c01132bf:	ff af 00 00 00 00    	ljmp   *0x0(%edi)
c01132c5:	41                   	inc    %ecx
c01132c6:	0e                   	push   %cs
c01132c7:	08 85 02 41 0e 0c    	or     %al,0xc0e4102(%ebp)
c01132cd:	87 03                	xchg   %eax,(%ebx)
c01132cf:	41                   	inc    %ecx
c01132d0:	0e                   	push   %cs
c01132d1:	10 86 04 46 0e 14    	adc    %al,0x140e4604(%esi)
c01132d7:	83 05 4e 0e 20 54 0e 	addl   $0xe,0x54200e4e
c01132de:	2c 45                	sub    $0x45,%al
c01132e0:	0e                   	push   %cs
c01132e1:	30 48 0e             	xor    %cl,0xe(%eax)
c01132e4:	20 49 0e             	and    %cl,0xe(%ecx)
c01132e7:	28 47 0e             	sub    %al,0xe(%edi)
c01132ea:	2c 45                	sub    $0x45,%al
c01132ec:	0e                   	push   %cs
c01132ed:	30 4c 0e 20          	xor    %cl,0x20(%esi,%ecx,1)
c01132f1:	5a                   	pop    %edx
c01132f2:	0e                   	push   %cs
c01132f3:	2c 45                	sub    $0x45,%al
c01132f5:	0e                   	push   %cs
c01132f6:	30 48 0e             	xor    %cl,0xe(%eax)
c01132f9:	20 49 0e             	and    %cl,0xe(%ecx)
c01132fc:	28 47 0e             	sub    %al,0xe(%edi)
c01132ff:	2c 45                	sub    $0x45,%al
c0113301:	0e                   	push   %cs
c0113302:	30 4c 0e 20          	xor    %cl,0x20(%esi,%ecx,1)
c0113306:	49                   	dec    %ecx
c0113307:	0e                   	push   %cs
c0113308:	14 41                	adc    $0x41,%al
c011330a:	c3                   	ret
c011330b:	0e                   	push   %cs
c011330c:	10 41 c6             	adc    %al,-0x3a(%ecx)
c011330f:	0e                   	push   %cs
c0113310:	0c 41                	or     $0x41,%al
c0113312:	c7                   	(bad)
c0113313:	0e                   	push   %cs
c0113314:	08 41 c5             	or     %al,-0x3b(%ecx)
c0113317:	0e                   	push   %cs
c0113318:	04 00                	add    $0x0,%al
c011331a:	00 00                	add    %al,(%eax)
c011331c:	10 00                	adc    %al,(%eax)
c011331e:	00 00                	add    %al,(%eax)
c0113320:	20 03                	and    %al,(%ebx)
c0113322:	00 00                	add    %al,(%eax)
c0113324:	4c                   	dec    %esp
c0113325:	d4 ff                	aam    $0xff
c0113327:	ff 01                	incl   (%ecx)
c0113329:	00 00                	add    %al,(%eax)
c011332b:	00 00                	add    %al,(%eax)
c011332d:	00 00                	add    %al,(%eax)
c011332f:	00 b4 00 00 00 34 03 	add    %dh,0x3340000(%eax,%eax,1)
c0113336:	00 00                	add    %al,(%eax)
c0113338:	48                   	dec    %eax
c0113339:	d4 ff                	aam    $0xff
c011333b:	ff c3                	inc    %ebx
c011333d:	00 00                	add    %al,(%eax)
c011333f:	00 00                	add    %al,(%eax)
c0113341:	41                   	inc    %ecx
c0113342:	0e                   	push   %cs
c0113343:	08 85 02 41 0e 0c    	or     %al,0xc0e4102(%ebp)
c0113349:	87 03                	xchg   %eax,(%ebx)
c011334b:	41                   	inc    %ecx
c011334c:	0e                   	push   %cs
c011334d:	10 86 04 41 0e 14    	adc    %al,0x140e4104(%esi)
c0113353:	83 05 4e 0e 2c 46 0e 	addl   $0xe,0x462c0e4e
c011335a:	30 56 0e             	xor    %dl,0xe(%esi)
c011335d:	2c 41                	sub    $0x41,%al
c011335f:	0e                   	push   %cs
c0113360:	28 42 0e             	sub    %al,0xe(%edx)
c0113363:	2c 42                	sub    $0x42,%al
c0113365:	0e                   	push   %cs
c0113366:	30 46 0e             	xor    %al,0xe(%esi)
c0113369:	2c 41                	sub    $0x41,%al
c011336b:	0e                   	push   %cs
c011336c:	28 42 0e             	sub    %al,0xe(%edx)
c011336f:	2c 45                	sub    $0x45,%al
c0113371:	0e                   	push   %cs
c0113372:	30 46 0e             	xor    %al,0xe(%esi)
c0113375:	2c 43                	sub    $0x43,%al
c0113377:	0e                   	push   %cs
c0113378:	28 44 0e 2c          	sub    %al,0x2c(%esi,%ecx,1)
c011337c:	42                   	inc    %edx
c011337d:	0e                   	push   %cs
c011337e:	30 46 0e             	xor    %al,0xe(%esi)
c0113381:	2c 41                	sub    $0x41,%al
c0113383:	0e                   	push   %cs
c0113384:	28 47 0e             	sub    %al,0xe(%edi)
c0113387:	2c 45                	sub    $0x45,%al
c0113389:	0e                   	push   %cs
c011338a:	30 46 0e             	xor    %al,0xe(%esi)
c011338d:	2c 41                	sub    $0x41,%al
c011338f:	0e                   	push   %cs
c0113390:	28 42 0e             	sub    %al,0xe(%edx)
c0113393:	2c 42                	sub    $0x42,%al
c0113395:	0e                   	push   %cs
c0113396:	30 46 0e             	xor    %al,0xe(%esi)
c0113399:	2c 41                	sub    $0x41,%al
c011339b:	0e                   	push   %cs
c011339c:	28 42 0e             	sub    %al,0xe(%edx)
c011339f:	2c 45                	sub    $0x45,%al
c01133a1:	0e                   	push   %cs
c01133a2:	30 46 0e             	xor    %al,0xe(%esi)
c01133a5:	2c 41                	sub    $0x41,%al
c01133a7:	0e                   	push   %cs
c01133a8:	28 42 0e             	sub    %al,0xe(%edx)
c01133ab:	2c 42                	sub    $0x42,%al
c01133ad:	0e                   	push   %cs
c01133ae:	30 46 0e             	xor    %al,0xe(%esi)
c01133b1:	2c 41                	sub    $0x41,%al
c01133b3:	0e                   	push   %cs
c01133b4:	28 42 0e             	sub    %al,0xe(%edx)
c01133b7:	2c 45                	sub    $0x45,%al
c01133b9:	0e                   	push   %cs
c01133ba:	30 46 0e             	xor    %al,0xe(%esi)
c01133bd:	2c 43                	sub    $0x43,%al
c01133bf:	0e                   	push   %cs
c01133c0:	28 44 0e 2c          	sub    %al,0x2c(%esi,%ecx,1)
c01133c4:	42                   	inc    %edx
c01133c5:	0e                   	push   %cs
c01133c6:	30 48 0e             	xor    %cl,0xe(%eax)
c01133c9:	2c 41                	sub    $0x41,%al
c01133cb:	0e                   	push   %cs
c01133cc:	28 44 0e 2c          	sub    %al,0x2c(%esi,%ecx,1)
c01133d0:	45                   	inc    %ebp
c01133d1:	0e                   	push   %cs
c01133d2:	30 48 0e             	xor    %cl,0xe(%eax)
c01133d5:	14 41                	adc    $0x41,%al
c01133d7:	c3                   	ret
c01133d8:	0e                   	push   %cs
c01133d9:	10 41 c6             	adc    %al,-0x3a(%ecx)
c01133dc:	0e                   	push   %cs
c01133dd:	0c 41                	or     $0x41,%al
c01133df:	c7                   	(bad)
c01133e0:	0e                   	push   %cs
c01133e1:	08 41 c5             	or     %al,-0x3b(%ecx)
c01133e4:	0e                   	push   %cs
c01133e5:	04 00                	add    $0x0,%al
c01133e7:	00 60 00             	add    %ah,0x0(%eax)
c01133ea:	00 00                	add    %al,(%eax)
c01133ec:	ec                   	in     (%dx),%al
c01133ed:	03 00                	add    (%eax),%eax
c01133ef:	00 60 d4             	add    %ah,-0x2c(%eax)
c01133f2:	ff                   	(bad)
c01133f3:	ff 8f 00 00 00 00    	decl   0x0(%edi)
c01133f9:	41                   	inc    %ecx
c01133fa:	0e                   	push   %cs
c01133fb:	08 87 02 46 0e 0c    	or     %al,0xc0e4602(%edi)
c0113401:	86 03                	xchg   %al,(%ebx)
c0113403:	43                   	inc    %ebx
c0113404:	0e                   	push   %cs
c0113405:	10 83 04 4e 0e 1c    	adc    %al,0x1c0e4e04(%ebx)
c011340b:	42                   	inc    %edx
c011340c:	0e                   	push   %cs
c011340d:	20 48 0e             	and    %cl,0xe(%eax)
c0113410:	10 4f 0e             	adc    %cl,0xe(%edi)
c0113413:	1c 45                	sbb    $0x45,%al
c0113415:	0e                   	push   %cs
c0113416:	20 46 0e             	and    %al,0xe(%esi)
c0113419:	1c 43                	sbb    $0x43,%al
c011341b:	0e                   	push   %cs
c011341c:	18 4e 0e             	sbb    %cl,0xe(%esi)
c011341f:	1c 45                	sbb    $0x45,%al
c0113421:	0e                   	push   %cs
c0113422:	20 4a 0e             	and    %cl,0xe(%edx)
c0113425:	10 45 0a             	adc    %al,0xa(%ebp)
c0113428:	c3                   	ret
c0113429:	0e                   	push   %cs
c011342a:	0c 41                	or     $0x41,%al
c011342c:	c6                   	(bad)
c011342d:	0e                   	push   %cs
c011342e:	08 41 c7             	or     %al,-0x39(%ecx)
c0113431:	0e                   	push   %cs
c0113432:	04 45                	add    $0x45,%al
c0113434:	0b 43 0e             	or     0xe(%ebx),%eax
c0113437:	1c 42                	sbb    $0x42,%al
c0113439:	0e                   	push   %cs
c011343a:	20 46 0e             	and    %al,0xe(%esi)
c011343d:	1c 43                	sbb    $0x43,%al
c011343f:	0e                   	push   %cs
c0113440:	18 4d 0e             	sbb    %cl,0xe(%ebp)
c0113443:	1c 42                	sbb    $0x42,%al
c0113445:	0e                   	push   %cs
c0113446:	20 48 0e             	and    %cl,0xe(%eax)
c0113449:	10 00                	adc    %al,(%eax)
c011344b:	00 40 00             	add    %al,0x0(%eax)
c011344e:	00 00                	add    %al,(%eax)
c0113450:	50                   	push   %eax
c0113451:	04 00                	add    $0x0,%al
c0113453:	00 8c d4 ff ff 51 00 	add    %cl,0x51ffff(%esp,%edx,8)
c011345a:	00 00                	add    %al,(%eax)
c011345c:	00 41 0e             	add    %al,0xe(%ecx)
c011345f:	08 87 02 41 0e 0c    	or     %al,0xc0e4102(%edi)
c0113465:	86 03                	xchg   %al,(%ebx)
c0113467:	41                   	inc    %ecx
c0113468:	0e                   	push   %cs
c0113469:	10 83 04 5e 0e 1c    	adc    %al,0x1c0e5e04(%ebx)
c011346f:	41                   	inc    %ecx
c0113470:	0e                   	push   %cs
c0113471:	20 46 0e             	and    %al,0xe(%esi)
c0113474:	1c 46                	sbb    $0x46,%al
c0113476:	0e                   	push   %cs
c0113477:	18 4a 0e             	sbb    %cl,0xe(%edx)
c011347a:	1c 41                	sbb    $0x41,%al
c011347c:	0e                   	push   %cs
c011347d:	20 48 0e             	and    %cl,0xe(%eax)
c0113480:	10 41 0a             	adc    %al,0xa(%ecx)
c0113483:	c3                   	ret
c0113484:	0e                   	push   %cs
c0113485:	0c 41                	or     $0x41,%al
c0113487:	c6                   	(bad)
c0113488:	0e                   	push   %cs
c0113489:	08 41 c7             	or     %al,-0x39(%ecx)
c011348c:	0e                   	push   %cs
c011348d:	04 44                	add    $0x44,%al
c011348f:	0b 40 00             	or     0x0(%eax),%eax
c0113492:	00 00                	add    %al,(%eax)
c0113494:	94                   	xchg   %eax,%esp
c0113495:	04 00                	add    $0x0,%al
c0113497:	00 a8 d4 ff ff 49    	add    %ch,0x49ffffd4(%eax)
c011349d:	00 00                	add    %al,(%eax)
c011349f:	00 00                	add    %al,(%eax)
c01134a1:	41                   	inc    %ecx
c01134a2:	0e                   	push   %cs
c01134a3:	08 87 02 41 0e 0c    	or     %al,0xc0e4102(%edi)
c01134a9:	86 03                	xchg   %al,(%ebx)
c01134ab:	41                   	inc    %ecx
c01134ac:	0e                   	push   %cs
c01134ad:	10 83 04 5e 0e 1c    	adc    %al,0x1c0e5e04(%ebx)
c01134b3:	41                   	inc    %ecx
c01134b4:	0e                   	push   %cs
c01134b5:	20 46 0e             	and    %al,0xe(%esi)
c01134b8:	1c 41                	sbb    $0x41,%al
c01134ba:	0e                   	push   %cs
c01134bb:	18 47 0e             	sbb    %al,0xe(%edi)
c01134be:	1c 41                	sbb    $0x41,%al
c01134c0:	0e                   	push   %cs
c01134c1:	20 48 0e             	and    %cl,0xe(%eax)
c01134c4:	10 41 0a             	adc    %al,0xa(%ecx)
c01134c7:	c3                   	ret
c01134c8:	0e                   	push   %cs
c01134c9:	0c 41                	or     $0x41,%al
c01134cb:	c6                   	(bad)
c01134cc:	0e                   	push   %cs
c01134cd:	08 41 c7             	or     %al,-0x39(%ecx)
c01134d0:	0e                   	push   %cs
c01134d1:	04 44                	add    $0x44,%al
c01134d3:	0b 38                	or     (%eax),%edi
c01134d5:	00 00                	add    %al,(%eax)
c01134d7:	00 d8                	add    %bl,%al
c01134d9:	04 00                	add    $0x0,%al
c01134db:	00 b4 d4 ff ff 44 00 	add    %dh,0x44ffff(%esp,%edx,8)
c01134e2:	00 00                	add    %al,(%eax)
c01134e4:	00 41 0e             	add    %al,0xe(%ecx)
c01134e7:	08 83 02 4e 0e 10    	or     %al,0x100e4e02(%ebx)
c01134ed:	4a                   	dec    %edx
c01134ee:	0e                   	push   %cs
c01134ef:	18 42 0e             	sbb    %al,0xe(%edx)
c01134f2:	1c 42                	sbb    $0x42,%al
c01134f4:	0e                   	push   %cs
c01134f5:	20 48 0e             	and    %cl,0xe(%eax)
c01134f8:	08 41 c3             	or     %al,-0x3d(%ecx)
c01134fb:	0e                   	push   %cs
c01134fc:	04 4a                	add    $0x4a,%al
c01134fe:	0e                   	push   %cs
c01134ff:	10 83 02 43 0e 18    	adc    %al,0x180e4302(%ebx)
c0113505:	42                   	inc    %edx
c0113506:	0e                   	push   %cs
c0113507:	1c 45                	sbb    $0x45,%al
c0113509:	0e                   	push   %cs
c011350a:	20 48 0e             	and    %cl,0xe(%eax)
c011350d:	10 00                	adc    %al,(%eax)
c011350f:	00 10                	add    %dl,(%eax)
c0113511:	00 00                	add    %al,(%eax)
c0113513:	00 14 05 00 00 c8 d4 	add    %dl,-0x2b380000(,%eax,1)
c011351a:	ff                   	(bad)
c011351b:	ff 01                	incl   (%ecx)
c011351d:	00 00                	add    %al,(%eax)
c011351f:	00 00                	add    %al,(%eax)
c0113521:	00 00                	add    %al,(%eax)
c0113523:	00 10                	add    %dl,(%eax)
c0113525:	00 00                	add    %al,(%eax)
c0113527:	00 28                	add    %ch,(%eax)
c0113529:	05 00 00 c4 d4       	add    $0xd4c40000,%eax
c011352e:	ff                   	(bad)
c011352f:	ff 01                	incl   (%ecx)
c0113531:	00 00                	add    %al,(%eax)
c0113533:	00 00                	add    %al,(%eax)
c0113535:	00 00                	add    %al,(%eax)
c0113537:	00 10                	add    %dl,(%eax)
c0113539:	00 00                	add    %al,(%eax)
c011353b:	00 3c 05 00 00 c0 d4 	add    %bh,-0x2b400000(,%eax,1)
c0113542:	ff                   	(bad)
c0113543:	ff 01                	incl   (%ecx)
c0113545:	00 00                	add    %al,(%eax)
c0113547:	00 00                	add    %al,(%eax)
c0113549:	00 00                	add    %al,(%eax)
c011354b:	00 10                	add    %dl,(%eax)
c011354d:	00 00                	add    %al,(%eax)
c011354f:	00 50 05             	add    %dl,0x5(%eax)
c0113552:	00 00                	add    %al,(%eax)
c0113554:	bc d4 ff ff 01       	mov    $0x1ffffd4,%esp
c0113559:	00 00                	add    %al,(%eax)
c011355b:	00 00                	add    %al,(%eax)
c011355d:	00 00                	add    %al,(%eax)
c011355f:	00 10                	add    %dl,(%eax)
c0113561:	00 00                	add    %al,(%eax)
c0113563:	00 64 05 00          	add    %ah,0x0(%ebp,%eax,1)
c0113567:	00 b8 d4 ff ff 01    	add    %bh,0x1ffffd4(%eax)
c011356d:	00 00                	add    %al,(%eax)
c011356f:	00 00                	add    %al,(%eax)
c0113571:	00 00                	add    %al,(%eax)
c0113573:	00 10                	add    %dl,(%eax)
c0113575:	00 00                	add    %al,(%eax)
c0113577:	00 78 05             	add    %bh,0x5(%eax)
c011357a:	00 00                	add    %al,(%eax)
c011357c:	b4 d4                	mov    $0xd4,%ah
c011357e:	ff                   	(bad)
c011357f:	ff 01                	incl   (%ecx)
c0113581:	00 00                	add    %al,(%eax)
c0113583:	00 00                	add    %al,(%eax)
c0113585:	00 00                	add    %al,(%eax)
c0113587:	00 10                	add    %dl,(%eax)
c0113589:	00 00                	add    %al,(%eax)
c011358b:	00 8c 05 00 00 b0 d4 	add    %cl,-0x2b500000(%ebp,%eax,1)
c0113592:	ff                   	(bad)
c0113593:	ff 01                	incl   (%ecx)
c0113595:	00 00                	add    %al,(%eax)
c0113597:	00 00                	add    %al,(%eax)
c0113599:	00 00                	add    %al,(%eax)
c011359b:	00 3c 00             	add    %bh,(%eax,%eax,1)
c011359e:	00 00                	add    %al,(%eax)
c01135a0:	a0 05 00 00 ac       	mov    0xac000005,%al
c01135a5:	d4 ff                	aam    $0xff
c01135a7:	ff                   	(bad)
c01135a8:	eb 00                	jmp    c01135aa <__x86.get_pc_thunk.si+0x159a>
c01135aa:	00 00                	add    %al,(%eax)
c01135ac:	00 41 0e             	add    %al,0xe(%ecx)
c01135af:	08 85 02 41 0e 0c    	or     %al,0xc0e4102(%ebp)
c01135b5:	87 03                	xchg   %eax,(%ebx)
c01135b7:	41                   	inc    %ecx
c01135b8:	0e                   	push   %cs
c01135b9:	10 86 04 41 0e 14    	adc    %al,0x140e4104(%esi)
c01135bf:	83 05 4e 0e 3c 72 0e 	addl   $0xe,0x723c0e4e
c01135c6:	40                   	inc    %eax
c01135c7:	02 a2 0e 14 41 c3    	add    -0x3cbeebf2(%edx),%ah
c01135cd:	0e                   	push   %cs
c01135ce:	10 41 c6             	adc    %al,-0x3a(%ecx)
c01135d1:	0e                   	push   %cs
c01135d2:	0c 41                	or     $0x41,%al
c01135d4:	c7                   	(bad)
c01135d5:	0e                   	push   %cs
c01135d6:	08 41 c5             	or     %al,-0x3b(%ecx)
c01135d9:	0e                   	push   %cs
c01135da:	04 00                	add    $0x0,%al
c01135dc:	2c 00                	sub    $0x0,%al
c01135de:	00 00                	add    %al,(%eax)
c01135e0:	e0 05                	loopne c01135e7 <__x86.get_pc_thunk.si+0x15d7>
c01135e2:	00 00                	add    %al,(%eax)
c01135e4:	5c                   	pop    %esp
c01135e5:	d5 ff                	aad    $0xff
c01135e7:	ff 93 00 00 00 00    	call   *0x0(%ebx)
c01135ed:	41                   	inc    %ecx
c01135ee:	0e                   	push   %cs
c01135ef:	08 86 02 41 0e 0c    	or     %al,0xc0e4102(%esi)
c01135f5:	83 03 4e             	addl   $0x4e,(%ebx)
c01135f8:	0e                   	push   %cs
c01135f9:	1c 4b                	sbb    $0x4b,%al
c01135fb:	0e                   	push   %cs
c01135fc:	20 02                	and    %al,(%edx)
c01135fe:	75 0e                	jne    c011360e <__x86.get_pc_thunk.si+0x15fe>
c0113600:	0c 41                	or     $0x41,%al
c0113602:	c3                   	ret
c0113603:	0e                   	push   %cs
c0113604:	08 41 c6             	or     %al,-0x3a(%ecx)
c0113607:	0e                   	push   %cs
c0113608:	04 00                	add    $0x0,%al
c011360a:	00 00                	add    %al,(%eax)
c011360c:	28 00                	sub    %al,(%eax)
c011360e:	00 00                	add    %al,(%eax)
c0113610:	10 06                	adc    %al,(%esi)
c0113612:	00 00                	add    %al,(%eax)
c0113614:	cc                   	int3
c0113615:	d5 ff                	aad    $0xff
c0113617:	ff a8 00 00 00 00    	ljmp   *0x0(%eax)
c011361d:	41                   	inc    %ecx
c011361e:	0e                   	push   %cs
c011361f:	08 83 02 4e 0e 1c    	or     %al,0x1c0e4e02(%ebx)
c0113625:	47                   	inc    %edi
c0113626:	0e                   	push   %cs
c0113627:	20 54 0e 1c          	and    %dl,0x1c(%esi,%ecx,1)
c011362b:	44                   	inc    %esp
c011362c:	0e                   	push   %cs
c011362d:	20 02                	and    %al,(%edx)
c011362f:	78 0e                	js     c011363f <__x86.get_pc_thunk.si+0x162f>
c0113631:	08 41 c3             	or     %al,-0x3d(%ecx)
c0113634:	0e                   	push   %cs
c0113635:	04 00                	add    $0x0,%al
c0113637:	00 44 00 00          	add    %al,0x0(%eax,%eax,1)
c011363b:	00 3c 06             	add    %bh,(%esi,%eax,1)
c011363e:	00 00                	add    %al,(%eax)
c0113640:	50                   	push   %eax
c0113641:	d6                   	(bad)
c0113642:	ff                   	(bad)
c0113643:	ff 5c 00 00          	lcall  *0x0(%eax,%eax,1)
c0113647:	00 00                	add    %al,(%eax)
c0113649:	41                   	inc    %ecx
c011364a:	0e                   	push   %cs
c011364b:	08 83 02 4e 0e 2c    	or     %al,0x2c0e4e02(%ebx)
c0113651:	47                   	inc    %edi
c0113652:	0e                   	push   %cs
c0113653:	30 46 0e             	xor    %al,0xe(%esi)
c0113656:	2c 45                	sub    $0x45,%al
c0113658:	0e                   	push   %cs
c0113659:	30 45 0e             	xor    %al,0xe(%ebp)
c011365c:	34 45                	xor    $0x45,%al
c011365e:	0e                   	push   %cs
c011365f:	38 45 0e             	cmp    %al,0xe(%ebp)
c0113662:	3c 42                	cmp    $0x42,%al
c0113664:	0e                   	push   %cs
c0113665:	40                   	inc    %eax
c0113666:	48                   	dec    %eax
c0113667:	0e                   	push   %cs
c0113668:	2c 44                	sub    $0x44,%al
c011366a:	0e                   	push   %cs
c011366b:	30 46 0e             	xor    %al,0xe(%esi)
c011366e:	2c 44                	sub    $0x44,%al
c0113670:	0e                   	push   %cs
c0113671:	30 46 0e             	xor    %al,0xe(%esi)
c0113674:	2c 44                	sub    $0x44,%al
c0113676:	0e                   	push   %cs
c0113677:	30 48 0e             	xor    %cl,0xe(%eax)
c011367a:	08 41 c3             	or     %al,-0x3d(%ecx)
c011367d:	0e                   	push   %cs
c011367e:	04 00                	add    $0x0,%al
c0113680:	70 00                	jo     c0113682 <__x86.get_pc_thunk.si+0x1672>
c0113682:	00 00                	add    %al,(%eax)
c0113684:	84 06                	test   %al,(%esi)
c0113686:	00 00                	add    %al,(%eax)
c0113688:	68 d6 ff ff b0       	push   $0xb0ffffd6
c011368d:	00 00                	add    %al,(%eax)
c011368f:	00 00                	add    %al,(%eax)
c0113691:	41                   	inc    %ecx
c0113692:	0e                   	push   %cs
c0113693:	08 85 02 41 0e 0c    	or     %al,0xc0e4102(%ebp)
c0113699:	87 03                	xchg   %eax,(%ebx)
c011369b:	41                   	inc    %ecx
c011369c:	0e                   	push   %cs
c011369d:	10 86 04 41 0e 14    	adc    %al,0x140e4104(%esi)
c01136a3:	83 05 4e 0e 40 4c 0e 	addl   $0xe,0x4c400e4e
c01136aa:	48                   	dec    %eax
c01136ab:	47                   	inc    %edi
c01136ac:	0e                   	push   %cs
c01136ad:	4c                   	dec    %esp
c01136ae:	41                   	inc    %ecx
c01136af:	0e                   	push   %cs
c01136b0:	50                   	push   %eax
c01136b1:	50                   	push   %eax
c01136b2:	0e                   	push   %cs
c01136b3:	4c                   	dec    %esp
c01136b4:	41                   	inc    %ecx
c01136b5:	0e                   	push   %cs
c01136b6:	48                   	dec    %eax
c01136b7:	43                   	inc    %ebx
c01136b8:	0e                   	push   %cs
c01136b9:	4c                   	dec    %esp
c01136ba:	43                   	inc    %ebx
c01136bb:	0e                   	push   %cs
c01136bc:	50                   	push   %eax
c01136bd:	46                   	inc    %esi
c01136be:	0e                   	push   %cs
c01136bf:	4c                   	dec    %esp
c01136c0:	41                   	inc    %ecx
c01136c1:	0e                   	push   %cs
c01136c2:	48                   	dec    %eax
c01136c3:	42                   	inc    %edx
c01136c4:	0e                   	push   %cs
c01136c5:	4c                   	dec    %esp
c01136c6:	42                   	inc    %edx
c01136c7:	0e                   	push   %cs
c01136c8:	50                   	push   %eax
c01136c9:	4e                   	dec    %esi
c01136ca:	0e                   	push   %cs
c01136cb:	44                   	inc    %esp
c01136cc:	42                   	inc    %edx
c01136cd:	0e                   	push   %cs
c01136ce:	48                   	dec    %eax
c01136cf:	45                   	inc    %ebp
c01136d0:	0e                   	push   %cs
c01136d1:	4c                   	dec    %esp
c01136d2:	44                   	inc    %esp
c01136d3:	0e                   	push   %cs
c01136d4:	50                   	push   %eax
c01136d5:	58                   	pop    %eax
c01136d6:	0e                   	push   %cs
c01136d7:	44                   	inc    %esp
c01136d8:	42                   	inc    %edx
c01136d9:	0e                   	push   %cs
c01136da:	48                   	dec    %eax
c01136db:	41                   	inc    %ecx
c01136dc:	0e                   	push   %cs
c01136dd:	4c                   	dec    %esp
c01136de:	41                   	inc    %ecx
c01136df:	0e                   	push   %cs
c01136e0:	50                   	push   %eax
c01136e1:	6e                   	outsb  %ds:(%esi),(%dx)
c01136e2:	0e                   	push   %cs
c01136e3:	14 41                	adc    $0x41,%al
c01136e5:	c3                   	ret
c01136e6:	0e                   	push   %cs
c01136e7:	10 41 c6             	adc    %al,-0x3a(%ecx)
c01136ea:	0e                   	push   %cs
c01136eb:	0c 41                	or     $0x41,%al
c01136ed:	c7                   	(bad)
c01136ee:	0e                   	push   %cs
c01136ef:	08 41 c5             	or     %al,-0x3b(%ecx)
c01136f2:	0e                   	push   %cs
c01136f3:	04 10                	add    $0x10,%al
c01136f5:	00 00                	add    %al,(%eax)
c01136f7:	00 f8                	add    %bh,%al
c01136f9:	06                   	push   %es
c01136fa:	00 00                	add    %al,(%eax)
c01136fc:	a4                   	movsb  %ds:(%esi),%es:(%edi)
c01136fd:	d6                   	(bad)
c01136fe:	ff                   	(bad)
c01136ff:	ff 17                	call   *(%edi)
c0113701:	00 00                	add    %al,(%eax)
c0113703:	00 00                	add    %al,(%eax)
c0113705:	00 00                	add    %al,(%eax)
c0113707:	00 18                	add    %bl,(%eax)
c0113709:	00 00                	add    %al,(%eax)
c011370b:	00 0c 07             	add    %cl,(%edi,%eax,1)
c011370e:	00 00                	add    %al,(%eax)
c0113710:	b0 d6                	mov    $0xd6,%al
c0113712:	ff                   	(bad)
c0113713:	ff 54 00 00          	call   *0x0(%eax,%eax,1)
c0113717:	00 00                	add    %al,(%eax)
c0113719:	41                   	inc    %ecx
c011371a:	0e                   	push   %cs
c011371b:	08 83 02 02 52 c3    	or     %al,-0x3cadfdfe(%ebx)
c0113721:	0e                   	push   %cs
c0113722:	04 00                	add    $0x0,%al
c0113724:	20 00                	and    %al,(%eax)
c0113726:	00 00                	add    %al,(%eax)
c0113728:	28 07                	sub    %al,(%edi)
c011372a:	00 00                	add    %al,(%eax)
c011372c:	f4                   	hlt
c011372d:	d6                   	(bad)
c011372e:	ff                   	(bad)
c011372f:	ff 66 00             	jmp    *0x0(%esi)
c0113732:	00 00                	add    %al,(%eax)
c0113734:	00 4c 0e 08          	add    %cl,0x8(%esi,%ecx,1)
c0113738:	86 02                	xchg   %al,(%edx)
c011373a:	46                   	inc    %esi
c011373b:	0e                   	push   %cs
c011373c:	0c 83                	or     $0x83,%al
c011373e:	03 78 c3             	add    -0x3d(%eax),%edi
c0113741:	0e                   	push   %cs
c0113742:	08 4b c6             	or     %cl,-0x3a(%ebx)
c0113745:	0e                   	push   %cs
c0113746:	04 00                	add    $0x0,%al
c0113748:	20 00                	and    %al,(%eax)
c011374a:	00 00                	add    %al,(%eax)
c011374c:	4c                   	dec    %esp
c011374d:	07                   	pop    %es
c011374e:	00 00                	add    %al,(%eax)
c0113750:	40                   	inc    %eax
c0113751:	d7                   	xlat   %ds:(%ebx)
c0113752:	ff                   	(bad)
c0113753:	ff 76 00             	push   0x0(%esi)
c0113756:	00 00                	add    %al,(%eax)
c0113758:	00 41 0e             	add    %al,0xe(%ecx)
c011375b:	08 83 02 6c 0a c3    	or     %al,-0x3cf593fe(%ebx)
c0113761:	0e                   	push   %cs
c0113762:	04 41                	add    $0x41,%al
c0113764:	0b 02                	or     (%edx),%eax
c0113766:	47                   	inc    %edi
c0113767:	c3                   	ret
c0113768:	0e                   	push   %cs
c0113769:	04 00                	add    $0x0,%al
c011376b:	00 64 00 00          	add    %ah,0x0(%eax,%eax,1)
c011376f:	00 70 07             	add    %dh,0x7(%eax)
c0113772:	00 00                	add    %al,(%eax)
c0113774:	9c                   	pushf
c0113775:	d7                   	xlat   %ds:(%ebx)
c0113776:	ff                   	(bad)
c0113777:	ff a4 00 00 00 00 4c 	jmp    *0x4c000000(%eax,%eax,1)
c011377e:	0e                   	push   %cs
c011377f:	08 85 02 41 0e 0c    	or     %al,0xc0e4102(%ebp)
c0113785:	87 03                	xchg   %eax,(%ebx)
c0113787:	41                   	inc    %ecx
c0113788:	0e                   	push   %cs
c0113789:	10 86 04 41 0e 14    	adc    %al,0x140e4104(%esi)
c011378f:	83 05 43 0e 1c 02 58 	addl   $0x58,0x21c0e43
c0113796:	0a 0e                	or     (%esi),%cl
c0113798:	14 41                	adc    $0x41,%al
c011379a:	c3                   	ret
c011379b:	0e                   	push   %cs
c011379c:	10 41 c6             	adc    %al,-0x3a(%ecx)
c011379f:	0e                   	push   %cs
c01137a0:	0c 41                	or     $0x41,%al
c01137a2:	c7                   	(bad)
c01137a3:	0e                   	push   %cs
c01137a4:	08 41 c5             	or     %al,-0x3b(%ecx)
c01137a7:	0e                   	push   %cs
c01137a8:	04 42                	add    $0x42,%al
c01137aa:	0b 60 0a             	or     0xa(%eax),%esp
c01137ad:	0e                   	push   %cs
c01137ae:	14 41                	adc    $0x41,%al
c01137b0:	c3                   	ret
c01137b1:	0e                   	push   %cs
c01137b2:	10 41 c6             	adc    %al,-0x3a(%ecx)
c01137b5:	0e                   	push   %cs
c01137b6:	0c 41                	or     $0x41,%al
c01137b8:	c7                   	(bad)
c01137b9:	0e                   	push   %cs
c01137ba:	08 41 c5             	or     %al,-0x3b(%ecx)
c01137bd:	0e                   	push   %cs
c01137be:	04 44                	add    $0x44,%al
c01137c0:	0b 43 0e             	or     0xe(%ebx),%eax
c01137c3:	14 41                	adc    $0x41,%al
c01137c5:	c3                   	ret
c01137c6:	0e                   	push   %cs
c01137c7:	10 41 c6             	adc    %al,-0x3a(%ecx)
c01137ca:	0e                   	push   %cs
c01137cb:	0c 41                	or     $0x41,%al
c01137cd:	c7                   	(bad)
c01137ce:	0e                   	push   %cs
c01137cf:	08 41 c5             	or     %al,-0x3b(%ecx)
c01137d2:	0e                   	push   %cs
c01137d3:	04 1c                	add    $0x1c,%al
c01137d5:	00 00                	add    %al,(%eax)
c01137d7:	00 d8                	add    %bl,%al
c01137d9:	07                   	pop    %es
c01137da:	00 00                	add    %al,(%eax)
c01137dc:	e4 d7                	in     $0xd7,%al
c01137de:	ff                   	(bad)
c01137df:	ff 24 00             	jmp    *(%eax,%eax,1)
c01137e2:	00 00                	add    %al,(%eax)
c01137e4:	00 41 0e             	add    %al,0xe(%ecx)
c01137e7:	08 83 02 50 0e 0c    	or     %al,0xc0e5002(%ebx)
c01137ed:	4d                   	dec    %ebp
c01137ee:	0e                   	push   %cs
c01137ef:	08 45 c3             	or     %al,-0x3d(%ebp)
c01137f2:	0e                   	push   %cs
c01137f3:	04 2c                	add    $0x2c,%al
c01137f5:	00 00                	add    %al,(%eax)
c01137f7:	00 f8                	add    %bh,%al
c01137f9:	07                   	pop    %es
c01137fa:	00 00                	add    %al,(%eax)
c01137fc:	f4                   	hlt
c01137fd:	d7                   	xlat   %ds:(%ebx)
c01137fe:	ff                   	(bad)
c01137ff:	ff 97 00 00 00 00    	call   *0x0(%edi)
c0113805:	41                   	inc    %ecx
c0113806:	0e                   	push   %cs
c0113807:	08 85 02 42 0d 05    	or     %al,0x50d4202(%ebp)
c011380d:	43                   	inc    %ebx
c011380e:	87 03                	xchg   %eax,(%ebx)
c0113810:	86 04 83             	xchg   %al,(%ebx,%eax,4)
c0113813:	05 02 85 0a c3       	add    $0xc30a8502,%eax
c0113818:	41                   	inc    %ecx
c0113819:	c6 41 c7 41          	movb   $0x41,-0x39(%ecx)
c011381d:	c5 0c 04             	lds    (%esp,%eax,1),%ecx
c0113820:	04 42                	add    $0x42,%al
c0113822:	0b 00                	or     (%eax),%eax
c0113824:	40                   	inc    %eax
c0113825:	00 00                	add    %al,(%eax)
c0113827:	00 28                	add    %ch,(%eax)
c0113829:	08 00                	or     %al,(%eax)
c011382b:	00 64 d8 ff          	add    %ah,-0x1(%eax,%ebx,8)
c011382f:	ff 75 00             	push   0x0(%ebp)
c0113832:	00 00                	add    %al,(%eax)
c0113834:	00 41 0e             	add    %al,0xe(%ecx)
c0113837:	08 87 02 41 0e 0c    	or     %al,0xc0e4102(%edi)
c011383d:	86 03                	xchg   %al,(%ebx)
c011383f:	41                   	inc    %ecx
c0113840:	0e                   	push   %cs
c0113841:	10 83 04 43 0e 30    	adc    %al,0x300e4304(%ebx)
c0113847:	7c 0e                	jl     c0113857 <__x86.get_pc_thunk.si+0x1847>
c0113849:	34 49                	xor    $0x49,%al
c011384b:	0e                   	push   %cs
c011384c:	30 51 0e             	xor    %dl,0xe(%ecx)
c011384f:	34 46                	xor    $0x46,%al
c0113851:	0e                   	push   %cs
c0113852:	30 48 0a             	xor    %cl,0xa(%eax)
c0113855:	0e                   	push   %cs
c0113856:	10 41 c3             	adc    %al,-0x3d(%ecx)
c0113859:	0e                   	push   %cs
c011385a:	0c 41                	or     $0x41,%al
c011385c:	c6                   	(bad)
c011385d:	0e                   	push   %cs
c011385e:	08 41 c7             	or     %al,-0x39(%ecx)
c0113861:	0e                   	push   %cs
c0113862:	04 41                	add    $0x41,%al
c0113864:	0b 00                	or     (%eax),%eax
c0113866:	00 00                	add    %al,(%eax)
c0113868:	2c 00                	sub    $0x0,%al
c011386a:	00 00                	add    %al,(%eax)
c011386c:	6c                   	insb   (%dx),%es:(%edi)
c011386d:	08 00                	or     %al,(%eax)
c011386f:	00 a0 d8 ff ff 6b    	add    %ah,0x6bffffd8(%eax)
c0113875:	02 00                	add    (%eax),%al
c0113877:	00 00                	add    %al,(%eax)
c0113879:	4b                   	dec    %ebx
c011387a:	0e                   	push   %cs
c011387b:	08 85 02 42 0d 05    	or     %al,0x50d4202(%ebp)
c0113881:	46                   	inc    %esi
c0113882:	87 03                	xchg   %eax,(%ebx)
c0113884:	86 04 83             	xchg   %al,(%ebx,%eax,4)
c0113887:	05 02 6b 0a c3       	add    $0xc30a6b02,%eax
c011388c:	41                   	inc    %ecx
c011388d:	c6 41 c7 41          	movb   $0x41,-0x39(%ecx)
c0113891:	c5 0c 04             	lds    (%esp,%eax,1),%ecx
c0113894:	04 47                	add    $0x47,%al
c0113896:	0b 00                	or     (%eax),%eax
c0113898:	10 00                	adc    %al,(%eax)
c011389a:	00 00                	add    %al,(%eax)
c011389c:	9c                   	pushf
c011389d:	08 00                	or     %al,(%eax)
c011389f:	00 64 e7 ff          	add    %ah,-0x1(%edi,%eiz,8)
c01138a3:	ff 04 00             	incl   (%eax,%eax,1)
c01138a6:	00 00                	add    %al,(%eax)
c01138a8:	00 00                	add    %al,(%eax)
c01138aa:	00 00                	add    %al,(%eax)
c01138ac:	10 00                	adc    %al,(%eax)
c01138ae:	00 00                	add    %al,(%eax)
c01138b0:	b0 08                	mov    $0x8,%al
c01138b2:	00 00                	add    %al,(%eax)
c01138b4:	54                   	push   %esp
c01138b5:	e7 ff                	out    %eax,$0xff
c01138b7:	ff 04 00             	incl   (%eax,%eax,1)
c01138ba:	00 00                	add    %al,(%eax)
c01138bc:	00 00                	add    %al,(%eax)
c01138be:	00 00                	add    %al,(%eax)
c01138c0:	10 00                	adc    %al,(%eax)
c01138c2:	00 00                	add    %al,(%eax)
c01138c4:	c4 08                	les    (%eax),%ecx
c01138c6:	00 00                	add    %al,(%eax)
c01138c8:	44                   	inc    %esp
c01138c9:	e7 ff                	out    %eax,$0xff
c01138cb:	ff 04 00             	incl   (%eax,%eax,1)
c01138ce:	00 00                	add    %al,(%eax)
c01138d0:	00 00                	add    %al,(%eax)
c01138d2:	00 00                	add    %al,(%eax)
c01138d4:	10 00                	adc    %al,(%eax)
c01138d6:	00 00                	add    %al,(%eax)
c01138d8:	d8 08                	fmuls  (%eax)
c01138da:	00 00                	add    %al,(%eax)
c01138dc:	a4                   	movsb  %ds:(%esi),%es:(%edi)
c01138dd:	da ff                	(bad)
c01138df:	ff 21                	jmp    *(%ecx)
c01138e1:	00 00                	add    %al,(%eax)
c01138e3:	00 00                	add    %al,(%eax)
c01138e5:	00 00                	add    %al,(%eax)
c01138e7:	00 20                	add    %ah,(%eax)
c01138e9:	00 00                	add    %al,(%eax)
c01138eb:	00 ec                	add    %ch,%ah
c01138ed:	08 00                	or     %al,(%eax)
c01138ef:	00 c0                	add    %al,%al
c01138f1:	da ff                	(bad)
c01138f3:	ff 36                	push   (%esi)
c01138f5:	00 00                	add    %al,(%eax)
c01138f7:	00 00                	add    %al,(%eax)
c01138f9:	41                   	inc    %ecx
c01138fa:	0e                   	push   %cs
c01138fb:	08 86 02 41 0e 0c    	or     %al,0xc0e4102(%esi)
c0113901:	83 03 72             	addl   $0x72,(%ebx)
c0113904:	c3                   	ret
c0113905:	0e                   	push   %cs
c0113906:	08 41 c6             	or     %al,-0x3a(%ecx)
c0113909:	0e                   	push   %cs
c011390a:	04 00                	add    $0x0,%al
c011390c:	48                   	dec    %eax
c011390d:	00 00                	add    %al,(%eax)
c011390f:	00 10                	add    %dl,(%eax)
c0113911:	09 00                	or     %eax,(%eax)
c0113913:	00 dc                	add    %bl,%ah
c0113915:	da ff                	(bad)
c0113917:	ff 93 00 00 00 00    	call   *0x0(%ebx)
c011391d:	41                   	inc    %ecx
c011391e:	0e                   	push   %cs
c011391f:	08 85 02 41 0e 0c    	or     %al,0xc0e4102(%ebp)
c0113925:	87 03                	xchg   %eax,(%ebx)
c0113927:	41                   	inc    %ecx
c0113928:	0e                   	push   %cs
c0113929:	10 86 04 41 0e 14    	adc    %al,0x140e4104(%esi)
c011392f:	83 05 02 64 0a c3 0e 	addl   $0xe,0xc30a6402
c0113936:	10 41 c6             	adc    %al,-0x3a(%ecx)
c0113939:	0e                   	push   %cs
c011393a:	0c 41                	or     $0x41,%al
c011393c:	c7                   	(bad)
c011393d:	0e                   	push   %cs
c011393e:	08 41 c5             	or     %al,-0x3b(%ecx)
c0113941:	0e                   	push   %cs
c0113942:	04 45                	add    $0x45,%al
c0113944:	0b 4d 0a             	or     0xa(%ebp),%ecx
c0113947:	c3                   	ret
c0113948:	0e                   	push   %cs
c0113949:	10 41 c6             	adc    %al,-0x3a(%ecx)
c011394c:	0e                   	push   %cs
c011394d:	0c 41                	or     $0x41,%al
c011394f:	c7                   	(bad)
c0113950:	0e                   	push   %cs
c0113951:	08 41 c5             	or     %al,-0x3b(%ecx)
c0113954:	0e                   	push   %cs
c0113955:	04 48                	add    $0x48,%al
c0113957:	0b 44 00 00          	or     0x0(%eax,%eax,1),%eax
c011395b:	00 5c 09 00          	add    %bl,0x0(%ecx,%ecx,1)
c011395f:	00 30                	add    %dh,(%eax)
c0113961:	db ff                	(bad)
c0113963:	ff 5f 00             	lcall  *0x0(%edi)
c0113966:	00 00                	add    %al,(%eax)
c0113968:	00 41 0e             	add    %al,0xe(%ecx)
c011396b:	08 85 02 41 0e 0c    	or     %al,0xc0e4102(%ebp)
c0113971:	87 03                	xchg   %eax,(%ebx)
c0113973:	41                   	inc    %ecx
c0113974:	0e                   	push   %cs
c0113975:	10 86 04 41 0e 14    	adc    %al,0x140e4104(%esi)
c011397b:	83 05 5d 0a c3 0e 10 	addl   $0x10,0xec30a5d
c0113982:	41                   	inc    %ecx
c0113983:	c6                   	(bad)
c0113984:	0e                   	push   %cs
c0113985:	0c 41                	or     $0x41,%al
c0113987:	c7                   	(bad)
c0113988:	0e                   	push   %cs
c0113989:	08 41 c5             	or     %al,-0x3b(%ecx)
c011398c:	0e                   	push   %cs
c011398d:	04 44                	add    $0x44,%al
c011398f:	0b 73 c3             	or     -0x3d(%ebx),%esi
c0113992:	0e                   	push   %cs
c0113993:	10 41 c6             	adc    %al,-0x3a(%ecx)
c0113996:	0e                   	push   %cs
c0113997:	0c 41                	or     $0x41,%al
c0113999:	c7                   	(bad)
c011399a:	0e                   	push   %cs
c011399b:	08 41 c5             	or     %al,-0x3b(%ecx)
c011399e:	0e                   	push   %cs
c011399f:	04 14                	add    $0x14,%al
c01139a1:	00 00                	add    %al,(%eax)
c01139a3:	00 a4 09 00 00 48 db 	add    %ah,-0x24b80000(%ecx,%ecx,1)
c01139aa:	ff                   	(bad)
c01139ab:	ff 4b 00             	decl   0x0(%ebx)
c01139ae:	00 00                	add    %al,(%eax)
c01139b0:	00 43 0e             	add    %al,0xe(%ebx)
c01139b3:	14 02                	adc    $0x2,%al
c01139b5:	47                   	inc    %edi
c01139b6:	0e                   	push   %cs
c01139b7:	04 10                	add    $0x10,%al
c01139b9:	00 00                	add    %al,(%eax)
c01139bb:	00 bc 09 00 00 80 db 	add    %bh,-0x24800000(%ecx,%ecx,1)
c01139c2:	ff                   	(bad)
c01139c3:	ff 06                	incl   (%esi)
c01139c5:	00 00                	add    %al,(%eax)
c01139c7:	00 00                	add    %al,(%eax)
c01139c9:	00 00                	add    %al,(%eax)
c01139cb:	00 10                	add    %dl,(%eax)
c01139cd:	00 00                	add    %al,(%eax)
c01139cf:	00 d0                	add    %dl,%al
c01139d1:	09 00                	or     %eax,(%eax)
c01139d3:	00 7c db ff          	add    %bh,-0x1(%ebx,%ebx,8)
c01139d7:	ff 06                	incl   (%esi)
c01139d9:	00 00                	add    %al,(%eax)
c01139db:	00 00                	add    %al,(%eax)
c01139dd:	00 00                	add    %al,(%eax)
c01139df:	00 10                	add    %dl,(%eax)
c01139e1:	00 00                	add    %al,(%eax)
c01139e3:	00 e4                	add    %ah,%ah
c01139e5:	09 00                	or     %eax,(%eax)
c01139e7:	00 78 db             	add    %bh,-0x25(%eax)
c01139ea:	ff                   	(bad)
c01139eb:	ff 21                	jmp    *(%ecx)
c01139ed:	00 00                	add    %al,(%eax)
c01139ef:	00 00                	add    %al,(%eax)
c01139f1:	00 00                	add    %al,(%eax)
c01139f3:	00 10                	add    %dl,(%eax)
c01139f5:	00 00                	add    %al,(%eax)
c01139f7:	00 f8                	add    %bh,%al
c01139f9:	09 00                	or     %eax,(%eax)
c01139fb:	00 94 db ff ff 29 00 	add    %dl,0x29ffff(%ebx,%ebx,8)
c0113a02:	00 00                	add    %al,(%eax)
c0113a04:	00 00                	add    %al,(%eax)
c0113a06:	00 00                	add    %al,(%eax)
c0113a08:	2c 00                	sub    $0x0,%al
c0113a0a:	00 00                	add    %al,(%eax)
c0113a0c:	0c 0a                	or     $0xa,%al
c0113a0e:	00 00                	add    %al,(%eax)
c0113a10:	b0 db                	mov    $0xdb,%al
c0113a12:	ff                   	(bad)
c0113a13:	ff 6e 00             	ljmp   *0x0(%esi)
c0113a16:	00 00                	add    %al,(%eax)
c0113a18:	00 41 0e             	add    %al,0xe(%ecx)
c0113a1b:	08 87 02 46 0e 0c    	or     %al,0xc0e4602(%edi)
c0113a21:	86 03                	xchg   %al,(%ebx)
c0113a23:	4c                   	dec    %esp
c0113a24:	0e                   	push   %cs
c0113a25:	10 83 04 02 58 c3    	adc    %al,-0x3ca7fdfc(%ebx)
c0113a2b:	0e                   	push   %cs
c0113a2c:	0c 41                	or     $0x41,%al
c0113a2e:	c6                   	(bad)
c0113a2f:	0e                   	push   %cs
c0113a30:	08 41 c7             	or     %al,-0x39(%ecx)
c0113a33:	0e                   	push   %cs
c0113a34:	04 00                	add    $0x0,%al
c0113a36:	00 00                	add    %al,(%eax)
c0113a38:	10 00                	adc    %al,(%eax)
c0113a3a:	00 00                	add    %al,(%eax)
c0113a3c:	3c 0a                	cmp    $0xa,%al
c0113a3e:	00 00                	add    %al,(%eax)
c0113a40:	f0 db ff             	lock (bad)
c0113a43:	ff                   	(bad)
c0113a44:	3e 00 00             	add    %al,%ds:(%eax)
c0113a47:	00 00                	add    %al,(%eax)
c0113a49:	00 00                	add    %al,(%eax)
c0113a4b:	00 10                	add    %dl,(%eax)
c0113a4d:	00 00                	add    %al,(%eax)
c0113a4f:	00 50 0a             	add    %dl,0xa(%eax)
c0113a52:	00 00                	add    %al,(%eax)
c0113a54:	bc e5 ff ff 04       	mov    $0x4ffffe5,%esp
c0113a59:	00 00                	add    %al,(%eax)
c0113a5b:	00 00                	add    %al,(%eax)
c0113a5d:	00 00                	add    %al,(%eax)
c0113a5f:	00 78 01             	add    %bh,0x1(%eax)
c0113a62:	00 00                	add    %al,(%eax)
c0113a64:	64 0a 00             	or     %fs:(%eax),%al
c0113a67:	00 38                	add    %bh,(%eax)
c0113a69:	dc ff                	fdivr  %st,%st(7)
c0113a6b:	ff c9                	dec    %ecx
c0113a6d:	04 00                	add    $0x0,%al
c0113a6f:	00 00                	add    %al,(%eax)
c0113a71:	41                   	inc    %ecx
c0113a72:	0e                   	push   %cs
c0113a73:	08 85 02 41 0e 0c    	or     %al,0xc0e4102(%ebp)
c0113a79:	87 03                	xchg   %eax,(%ebx)
c0113a7b:	41                   	inc    %ecx
c0113a7c:	0e                   	push   %cs
c0113a7d:	10 86 04 41 0e 14    	adc    %al,0x140e4104(%esi)
c0113a83:	83 05 51 0e 9c 01 42 	addl   $0x42,0x19c0e51
c0113a8a:	0e                   	push   %cs
c0113a8b:	a0 01 54 0e 9c       	mov    0x9c0e5401,%al
c0113a90:	01 51 0e             	add    %edx,0xe(%ecx)
c0113a93:	a0 01 02 48 0e       	mov    0xe480201,%al
c0113a98:	90                   	nop
c0113a99:	01 02                	add    %eax,(%edx)
c0113a9b:	5e                   	pop    %esi
c0113a9c:	0e                   	push   %cs
c0113a9d:	9c                   	pushf
c0113a9e:	01 44 0e a0          	add    %eax,-0x60(%esi,%ecx,1)
c0113aa2:	01 48 0e             	add    %ecx,0xe(%eax)
c0113aa5:	94                   	xchg   %eax,%esp
c0113aa6:	01 42 0e             	add    %eax,0xe(%edx)
c0113aa9:	98                   	cwtl
c0113aaa:	01 44 0e 9c          	add    %eax,-0x64(%esi,%ecx,1)
c0113aae:	01 41 0e             	add    %eax,0xe(%ecx)
c0113ab1:	a0 01 4e 0e 9c       	mov    0x9c0e4e01,%al
c0113ab6:	01 44 0e a0          	add    %eax,-0x60(%esi,%ecx,1)
c0113aba:	01 48 0e             	add    %ecx,0xe(%eax)
c0113abd:	90                   	nop
c0113abe:	01 74 0e 9c          	add    %esi,-0x64(%esi,%ecx,1)
c0113ac2:	01 44 0e a0          	add    %eax,-0x60(%esi,%ecx,1)
c0113ac6:	01 48 0e             	add    %ecx,0xe(%eax)
c0113ac9:	94                   	xchg   %eax,%esp
c0113aca:	01 42 0e             	add    %eax,0xe(%edx)
c0113acd:	98                   	cwtl
c0113ace:	01 44 0e 9c          	add    %eax,-0x64(%esi,%ecx,1)
c0113ad2:	01 41 0e             	add    %eax,0xe(%ecx)
c0113ad5:	a0 01 4e 0e 9c       	mov    0x9c0e4e01,%al
c0113ada:	01 44 0e a0          	add    %eax,-0x60(%esi,%ecx,1)
c0113ade:	01 46 0e             	add    %eax,0xe(%esi)
c0113ae1:	9c                   	pushf
c0113ae2:	01 44 0e a0          	add    %eax,-0x60(%esi,%ecx,1)
c0113ae6:	01 46 0e             	add    %eax,0xe(%esi)
c0113ae9:	9c                   	pushf
c0113aea:	01 44 0e a0          	add    %eax,-0x60(%esi,%ecx,1)
c0113aee:	01 4b 0e             	add    %ecx,0xe(%ebx)
c0113af1:	90                   	nop
c0113af2:	01 4c 0e 9c          	add    %ecx,-0x64(%esi,%ecx,1)
c0113af6:	01 47 0e             	add    %eax,0xe(%edi)
c0113af9:	a0 01 48 0e 94       	mov    0x940e4801,%al
c0113afe:	01 42 0e             	add    %eax,0xe(%edx)
c0113b01:	98                   	cwtl
c0113b02:	01 45 0e             	add    %eax,0xe(%ebp)
c0113b05:	9c                   	pushf
c0113b06:	01 4a 0e             	add    %ecx,0xe(%edx)
c0113b09:	a0 01 5e 0e 94       	mov    0x940e5e01,%al
c0113b0e:	01 42 0e             	add    %eax,0xe(%edx)
c0113b11:	98                   	cwtl
c0113b12:	01 41 0e             	add    %eax,0xe(%ecx)
c0113b15:	9c                   	pushf
c0113b16:	01 4a 0e             	add    %ecx,0xe(%edx)
c0113b19:	a0 01 5e 0e 94       	mov    0x940e5e01,%al
c0113b1e:	01 42 0e             	add    %eax,0xe(%edx)
c0113b21:	98                   	cwtl
c0113b22:	01 41 0e             	add    %eax,0xe(%ecx)
c0113b25:	9c                   	pushf
c0113b26:	01 4a 0e             	add    %ecx,0xe(%edx)
c0113b29:	a0 01 5e 0e 94       	mov    0x940e5e01,%al
c0113b2e:	01 42 0e             	add    %eax,0xe(%edx)
c0113b31:	98                   	cwtl
c0113b32:	01 41 0e             	add    %eax,0xe(%ecx)
c0113b35:	9c                   	pushf
c0113b36:	01 4a 0e             	add    %ecx,0xe(%edx)
c0113b39:	a0 01 5e 0e 94       	mov    0x940e5e01,%al
c0113b3e:	01 42 0e             	add    %eax,0xe(%edx)
c0113b41:	98                   	cwtl
c0113b42:	01 41 0e             	add    %eax,0xe(%ecx)
c0113b45:	9c                   	pushf
c0113b46:	01 4a 0e             	add    %ecx,0xe(%edx)
c0113b49:	a0 01 5e 0e 94       	mov    0x940e5e01,%al
c0113b4e:	01 42 0e             	add    %eax,0xe(%edx)
c0113b51:	98                   	cwtl
c0113b52:	01 41 0e             	add    %eax,0xe(%ecx)
c0113b55:	9c                   	pushf
c0113b56:	01 4a 0e             	add    %ecx,0xe(%edx)
c0113b59:	a0 01 5e 0e 94       	mov    0x940e5e01,%al
c0113b5e:	01 42 0e             	add    %eax,0xe(%edx)
c0113b61:	98                   	cwtl
c0113b62:	01 41 0e             	add    %eax,0xe(%ecx)
c0113b65:	9c                   	pushf
c0113b66:	01 4a 0e             	add    %ecx,0xe(%edx)
c0113b69:	a0 01 5e 0e 94       	mov    0x940e5e01,%al
c0113b6e:	01 42 0e             	add    %eax,0xe(%edx)
c0113b71:	98                   	cwtl
c0113b72:	01 41 0e             	add    %eax,0xe(%ecx)
c0113b75:	9c                   	pushf
c0113b76:	01 4a 0e             	add    %ecx,0xe(%edx)
c0113b79:	a0 01 5e 0e 94       	mov    0x940e5e01,%al
c0113b7e:	01 42 0e             	add    %eax,0xe(%edx)
c0113b81:	98                   	cwtl
c0113b82:	01 41 0e             	add    %eax,0xe(%ecx)
c0113b85:	9c                   	pushf
c0113b86:	01 4a 0e             	add    %ecx,0xe(%edx)
c0113b89:	a0 01 5e 0e 94       	mov    0x940e5e01,%al
c0113b8e:	01 42 0e             	add    %eax,0xe(%edx)
c0113b91:	98                   	cwtl
c0113b92:	01 41 0e             	add    %eax,0xe(%ecx)
c0113b95:	9c                   	pushf
c0113b96:	01 4a 0e             	add    %ecx,0xe(%edx)
c0113b99:	a0 01 65 0e 90       	mov    0x900e6501,%al
c0113b9e:	01 5b 0e             	add    %ebx,0xe(%ebx)
c0113ba1:	9c                   	pushf
c0113ba2:	01 4a 0e             	add    %ecx,0xe(%edx)
c0113ba5:	a0 01 48 0e 90       	mov    0x900e4801,%al
c0113baa:	01 55 0e             	add    %edx,0xe(%ebp)
c0113bad:	9c                   	pushf
c0113bae:	01 41 0e             	add    %eax,0xe(%ecx)
c0113bb1:	a0 01 56 0e 90       	mov    0x900e5601,%al
c0113bb6:	01 55 0e             	add    %edx,0xe(%ebp)
c0113bb9:	9c                   	pushf
c0113bba:	01 41 0e             	add    %eax,0xe(%ecx)
c0113bbd:	a0 01 56 0e 90       	mov    0x900e5601,%al
c0113bc2:	01 55 0e             	add    %edx,0xe(%ebp)
c0113bc5:	9c                   	pushf
c0113bc6:	01 41 0e             	add    %eax,0xe(%ecx)
c0113bc9:	a0 01 56 0e 90       	mov    0x900e5601,%al
c0113bce:	01 5d 0e             	add    %ebx,0xe(%ebp)
c0113bd1:	9c                   	pushf
c0113bd2:	01 41 0e             	add    %eax,0xe(%ecx)
c0113bd5:	a0 01 02 66 0e       	mov    0xe660201,%al
c0113bda:	90                   	nop
c0113bdb:	01 20                	add    %esp,(%eax)
c0113bdd:	00 00                	add    %al,(%eax)
c0113bdf:	00 e0                	add    %ah,%al
c0113be1:	0b 00                	or     (%eax),%eax
c0113be3:	00 8c df ff ff 74 00 	add    %cl,0x74ffff(%edi,%ebx,8)
c0113bea:	00 00                	add    %al,(%eax)
c0113bec:	00 41 0e             	add    %al,0xe(%ecx)
c0113bef:	08 83 02 53 0e 1c    	or     %al,0x1c0e5302(%ebx)
c0113bf5:	5a                   	pop    %edx
c0113bf6:	0e                   	push   %cs
c0113bf7:	20 02                	and    %al,(%edx)
c0113bf9:	44                   	inc    %esp
c0113bfa:	0e                   	push   %cs
c0113bfb:	08 41 c3             	or     %al,-0x3d(%ecx)
c0113bfe:	0e                   	push   %cs
c0113bff:	04                   	.byte 0x4

Disassembly of section .data:

c0113c00 <initrd_mmap_entry_addr>:
c0113c00:	ff                   	(bad)
c0113c01:	ff                   	(bad)
c0113c02:	ff                   	(bad)
c0113c03:	ff                   	(bad)
c0113c04:	ff                   	(bad)
c0113c05:	ff                   	(bad)
c0113c06:	ff                   	(bad)
c0113c07:	ff                 	decl   (%esi)

c0113c08 <g_fore_color>:
c0113c08:	0e                   	push   %cs
c0113c09:	00 00                	add    %al,(%eax)
	...

c0113c0c <next_line_index>:
c0113c0c:	01 00                	add    %eax,(%eax)
	...

Disassembly of section .got.plt:

c0114000 <_GLOBAL_OFFSET_TABLE_>:
	...

Disassembly of section .data.rel.ro.local:

c0114020 <__symbol_tab>:
c0114020:	00 00                	add    %al,(%eax)
c0114022:	10 00                	adc    %al,(%eax)
c0114024:	b1 21                	mov    $0x21,%cl
c0114026:	11 c0                	adc    %eax,%eax
c0114028:	00 00                	add    %al,(%eax)
c011402a:	10 c0                	adc    %al,%al
c011402c:	c3                   	ret
c011402d:	21 11                	and    %edx,(%ecx)
c011402f:	c0 20 00             	shlb   $0x0,(%eax)
c0114032:	10 c0                	adc    %al,%al
c0114034:	d5 21                	aad    $0x21
c0114036:	11 c0                	adc    %eax,%eax
c0114038:	20 00                	and    %al,(%eax)
c011403a:	11 c0                	adc    %eax,%eax
c011403c:	e2 21                	loop   c011405f <__symbol_tab+0x3f>
c011403e:	11 c0                	adc    %eax,%eax
c0114040:	20 00                	and    %al,(%eax)
c0114042:	11 c0                	adc    %eax,%eax
c0114044:	f7 21                	mull   (%ecx)
c0114046:	11 c0                	adc    %eax,%eax
c0114048:	92                   	xchg   %eax,%edx
c0114049:	01 11                	add    %edx,(%ecx)
c011404b:	c0 bc 21 11 c0 a6 01 	sarb   $0x11,0x1a6c011(%ecx,%eiz,1)
c0114052:	11 
c0114053:	c0 01 22             	rolb   $0x22,(%ecx)
c0114056:	11 c0                	adc    %eax,%eax
c0114058:	c0 01 11             	rolb   $0x11,(%ecx)
c011405b:	c0 08 22             	rorb   $0x22,(%eax)
c011405e:	11 c0                	adc    %eax,%eax
c0114060:	c3                   	ret
c0114061:	01 11                	add    %edx,(%ecx)
c0114063:	c0 11 22             	rclb   $0x22,(%ecx)
c0114066:	11 c0                	adc    %eax,%eax
c0114068:	cb                   	lret
c0114069:	01 11                	add    %edx,(%ecx)
c011406b:	c0 1b 22             	rcrb   $0x22,(%ebx)
c011406e:	11 c0                	adc    %eax,%eax
c0114070:	d3 01                	roll   %cl,(%ecx)
c0114072:	11 c0                	adc    %eax,%eax
c0114074:	24 22                	and    $0x22,%al
c0114076:	11 c0                	adc    %eax,%eax
c0114078:	db 01                	fildl  (%ecx)
c011407a:	11 c0                	adc    %eax,%eax
c011407c:	2d 22 11 c0 db       	sub    $0xdbc01122,%eax
c0114081:	01 11                	add    %edx,(%ecx)
c0114083:	c0 3c 22 11          	sarb   $0x11,(%edx,%eiz,1)
c0114087:	c0 f0 01             	shl    $0x1,%al
c011408a:	11 c0                	adc    %eax,%eax
c011408c:	44                   	inc    %esp
c011408d:	22 11                	and    (%ecx),%dl
c011408f:	c0 b0 02 11 c0 4b 22 	shlb   $0x22,0x4bc01102(%eax)
c0114096:	11 c0                	adc    %eax,%eax
c0114098:	14 03                	adc    $0x3,%al
c011409a:	11 c0                	adc    %eax,%eax
c011409c:	54                   	push   %esp
c011409d:	22 11                	and    (%ecx),%dl
c011409f:	c0 28 03             	shrb   $0x3,(%eax)
c01140a2:	11 c0                	adc    %eax,%eax
c01140a4:	59                   	pop    %ecx
c01140a5:	22 11                	and    (%ecx),%dl
c01140a7:	c0 b0 03 11 c0 5e 22 	shlb   $0x22,0x5ec01103(%eax)
c01140ae:	11 c0                	adc    %eax,%eax
c01140b0:	20 04 11             	and    %al,(%ecx,%edx,1)
c01140b3:	c0 63 22 11          	shlb   $0x11,0x22(%ebx)
c01140b7:	c0 f0 04             	shl    $0x4,%al
c01140ba:	11 c0                	adc    %eax,%eax
c01140bc:	68 22 11 c0 80       	push   $0x80c01122
c01140c1:	05 11 c0 6d 22       	add    $0x226dc011,%eax
c01140c6:	11 c0                	adc    %eax,%eax
c01140c8:	cf                   	iret
c01140c9:	05 11 c0 72 22       	add    $0x2272c011,%eax
c01140ce:	11 c0                	adc    %eax,%eax
c01140d0:	60                   	pusha
c01140d1:	06                   	push   %es
c01140d2:	11 c0                	adc    %eax,%eax
c01140d4:	77 22                	ja     c01140f8 <__symbol_tab+0xd8>
c01140d6:	11 c0                	adc    %eax,%eax
c01140d8:	c0 06 11             	rolb   $0x11,(%esi)
c01140db:	c0 7e 22 11          	sarb   $0x11,0x22(%esi)
c01140df:	c0 70 07 11          	shlb   $0x11,0x7(%eax)
c01140e3:	c0 85 22 11 c0 80 07 	rolb   $0x7,-0x7f3feede(%ebp)
c01140ea:	11 c0                	adc    %eax,%eax
c01140ec:	98                   	cwtl
c01140ed:	22 11                	and    (%ecx),%dl
c01140ef:	c0 50 08 11          	rclb   $0x11,0x8(%eax)
c01140f3:	c0 a2 22 11 c0 e0 08 	shlb   $0x8,-0x1f3feede(%edx)
c01140fa:	11 c0                	adc    %eax,%eax
c01140fc:	ae                   	scas   %es:(%edi),%al
c01140fd:	22 11                	and    (%ecx),%dl
c01140ff:	c0 40 09 11          	rolb   $0x11,0x9(%eax)
c0114103:	c0 b7 22 11 c0 90 09 	shlb   $0x9,-0x6f3feede(%edi)
c011410a:	11 c0                	adc    %eax,%eax
c011410c:	c2 22 11             	ret    $0x1122
c011410f:	c0 e0 09             	shl    $0x9,%al
c0114112:	11 c0                	adc    %eax,%eax
c0114114:	cf                   	iret
c0114115:	22 11                	and    (%ecx),%dl
c0114117:	c0 f0 09             	shl    $0x9,%al
c011411a:	11 c0                	adc    %eax,%eax
c011411c:	df 22                	fbld   (%edx)
c011411e:	11 c0                	adc    %eax,%eax
c0114120:	00 0a                	add    %cl,(%edx)
c0114122:	11 c0                	adc    %eax,%eax
c0114124:	f1                   	int1
c0114125:	22 11                	and    (%ecx),%dl
c0114127:	c0 10 0a             	rclb   $0xa,(%eax)
c011412a:	11 c0                	adc    %eax,%eax
c011412c:	03 23                	add    (%ebx),%esp
c011412e:	11 c0                	adc    %eax,%eax
c0114130:	20 0a                	and    %cl,(%edx)
c0114132:	11 c0                	adc    %eax,%eax
c0114134:	14 23                	adc    $0x23,%al
c0114136:	11 c0                	adc    %eax,%eax
c0114138:	30 0a                	xor    %cl,(%edx)
c011413a:	11 c0                	adc    %eax,%eax
c011413c:	25 23 11 c0 40       	and    $0x40c01123,%eax
c0114141:	0a 11                	or     (%ecx),%dl
c0114143:	c0 36 23             	shlb   $0x23,(%esi)
c0114146:	11 c0                	adc    %eax,%eax
c0114148:	50                   	push   %eax
c0114149:	0a 11                	or     (%ecx),%dl
c011414b:	c0 46 23 11          	rolb   $0x11,0x23(%esi)
c011414f:	c0 40 0b 11          	rolb   $0x11,0xb(%eax)
c0114153:	c0 50 23 11          	rclb   $0x11,0x23(%eax)
c0114157:	c0 e0 0b             	shl    $0xb,%al
c011415a:	11 c0                	adc    %eax,%eax
c011415c:	5a                   	pop    %edx
c011415d:	23 11                	and    (%ecx),%edx
c011415f:	c0 90 0c 11 c0 64 23 	rclb   $0x23,0x64c0110c(%eax)
c0114166:	11 c0                	adc    %eax,%eax
c0114168:	f0 0c 11             	lock or $0x11,%al
c011416b:	c0 6f 23 11          	shrb   $0x11,0x23(%edi)
c011416f:	c0 a0 0d 11 c0 76 23 	shlb   $0x23,0x76c0110d(%eax)
c0114176:	11 c0                	adc    %eax,%eax
c0114178:	c0 0d 11 c0 7e 23 11 	rorb   $0x11,0x237ec011
c011417f:	c0 20 0e             	shlb   $0xe,(%eax)
c0114182:	11 c0                	adc    %eax,%eax
c0114184:	8d 23                	lea    (%ebx),%esp
c0114186:	11 c0                	adc    %eax,%eax
c0114188:	90                   	nop
c0114189:	0e                   	push   %cs
c011418a:	11 c0                	adc    %eax,%eax
c011418c:	94                   	xchg   %eax,%esp
c011418d:	23 11                	and    (%ecx),%edx
c011418f:	c0 10 0f             	rclb   $0xf,(%eax)
c0114192:	11 c0                	adc    %eax,%eax
c0114194:	9c                   	pushf
c0114195:	23 11                	and    (%ecx),%edx
c0114197:	c0 c0 0f             	rol    $0xf,%al
c011419a:	11 c0                	adc    %eax,%eax
c011419c:	a3 23 11 c0 f0       	mov    %eax,0xf0c01123
c01141a1:	0f 11 c0             	movups %xmm0,%xmm0
c01141a4:	aa                   	stos   %al,%es:(%edi)
c01141a5:	23 11                	and    (%ecx),%edx
c01141a7:	c0 90 10 11 c0 b1 23 	rclb   $0x23,-0x4e3feef0(%eax)
c01141ae:	11 c0                	adc    %eax,%eax
c01141b0:	10 11                	adc    %dl,(%ecx)
c01141b2:	11 c0                	adc    %eax,%eax
c01141b4:	b8 23 11 c0 7c       	mov    $0x7cc01123,%eax
c01141b9:	11 11                	adc    %edx,(%ecx)
c01141bb:	c0 c1 23             	rol    $0x23,%cl
c01141be:	11 c0                	adc    %eax,%eax
c01141c0:	98                   	cwtl
c01141c1:	11 11                	adc    %edx,(%ecx)
c01141c3:	c0 c6 23             	rol    $0x23,%dh
c01141c6:	11 c0                	adc    %eax,%eax
c01141c8:	c7                   	(bad)
c01141c9:	11 11                	adc    %edx,(%ecx)
c01141cb:	c0 cb 23             	ror    $0x23,%bl
c01141ce:	11 c0                	adc    %eax,%eax
c01141d0:	f0 11 11             	lock adc %edx,(%ecx)
c01141d3:	c0 d1 23             	rcl    $0x23,%cl
c01141d6:	11 c0                	adc    %eax,%eax
c01141d8:	20 12                	and    %dl,(%edx)
c01141da:	11 c0                	adc    %eax,%eax
c01141dc:	d6                   	(bad)
c01141dd:	23 11                	and    (%ecx),%edx
c01141df:	c0 d8 12             	rcr    $0x12,%al
c01141e2:	11 c0                	adc    %eax,%eax
c01141e4:	db 23                	(bad)  (%ebx)
c01141e6:	11 c0                	adc    %eax,%eax
c01141e8:	40                   	inc    %eax
c01141e9:	13 11                	adc    (%ecx),%edx
c01141eb:	c0 e0 23             	shl    $0x23,%al
c01141ee:	11 c0                	adc    %eax,%eax
c01141f0:	80 13 11             	adcb   $0x11,(%ebx)
c01141f3:	c0 e5 23             	shl    $0x23,%ch
c01141f6:	11 c0                	adc    %eax,%eax
c01141f8:	b0 13                	mov    $0x13,%al
c01141fa:	11 c0                	adc    %eax,%eax
c01141fc:	ec                   	in     (%dx),%al
c01141fd:	23 11                	and    (%ecx),%edx
c01141ff:	c0 f0 13             	shl    $0x13,%al
c0114202:	11 c0                	adc    %eax,%eax
c0114204:	f8                   	clc
c0114205:	23 11                	and    (%ecx),%edx
c0114207:	c0 90 14 11 c0 fd 23 	rclb   $0x23,-0x23feeec(%eax)
c011420e:	11 c0                	adc    %eax,%eax
c0114210:	f0 14 11             	lock adc $0x11,%al
c0114213:	c0 02 24             	rolb   $0x24,(%edx)
c0114216:	11 c0                	adc    %eax,%eax
c0114218:	40                   	inc    %eax
c0114219:	15 11 c0 08 24       	adc    $0x2408c011,%eax
c011421e:	11 c0                	adc    %eax,%eax
c0114220:	50                   	push   %eax
c0114221:	15 11 c0 0c 24       	adc    $0x240cc011,%eax
c0114226:	11 c0                	adc    %eax,%eax
c0114228:	60                   	pusha
c0114229:	15 11 c0 11 24       	adc    $0x2411c011,%eax
c011422e:	11 c0                	adc    %eax,%eax
c0114230:	90                   	nop
c0114231:	15 11 c0 1d 24       	adc    $0x241dc011,%eax
c0114236:	11 c0                	adc    %eax,%eax
c0114238:	c0 15 11 c0 23 24 11 	rclb   $0x11,0x2423c011
c011423f:	c0 30 16             	shlb   $0x16,(%eax)
c0114242:	11 c0                	adc    %eax,%eax
c0114244:	2c 24                	sub    $0x24,%al
c0114246:	11 c0                	adc    %eax,%eax
c0114248:	6e                   	outsb  %ds:(%esi),(%dx)
c0114249:	16                   	push   %ss
c011424a:	11 c0                	adc    %eax,%eax
c011424c:	39 24 11             	cmp    %esp,(%ecx,%edx,1)
c011424f:	c0 8b 16 11 c0 42 24 	rorb   $0x24,0x42c01116(%ebx)
c0114256:	11 c0                	adc    %eax,%eax
c0114258:	8c 16                	mov    %ss,(%esi)
c011425a:	11 c0                	adc    %eax,%eax
c011425c:	4b                   	dec    %ebx
c011425d:	24 11                	and    $0x11,%al
c011425f:	c0 a0 16 11 c0 56 24 	shlb   $0x24,0x56c01116(%eax)
c0114266:	11 c0                	adc    %eax,%eax
c0114268:	70 1b                	jo     c0114285 <__symbol_tab+0x265>
c011426a:	11 c0                	adc    %eax,%eax
c011426c:	68 24 11 c0 e4       	push   $0xe4c01124
c0114271:	1b 11                	sbb    (%ecx),%edx
c0114273:	c0 71 24 11          	shlb   $0x11,0x24(%ecx)
c0114277:	c0 0f 1c             	rorb   $0x1c,(%edi)
c011427a:	11 c0                	adc    %eax,%eax
c011427c:	81 24 11 c0 15 1c 11 	andl   $0x111c15c0,(%ecx,%edx,1)
c0114283:	c0 8c 24 11 c0 1b 1c 	rorb   $0x11,0x1c1bc011(%esp)
c011428a:	11 
c011428b:	c0 97 24 11 c0 21 1c 	rclb   $0x1c,0x21c01124(%edi)
c0114292:	11 c0                	adc    %eax,%eax
c0114294:	a2 24 11 c0 27       	mov    %al,0x27c01124
c0114299:	1c 11                	sbb    $0x11,%al
c011429b:	c0 ad 24 11 c0 2d 1c 	shrb   $0x1c,0x2dc01124(%ebp)
c01142a2:	11 c0                	adc    %eax,%eax
c01142a4:	b8 24 11 c0 33       	mov    $0x33c01124,%eax
c01142a9:	1c 11                	sbb    $0x11,%al
c01142ab:	c0 c3 24             	rol    $0x24,%bl
c01142ae:	11 c0                	adc    %eax,%eax
c01142b0:	39 1c 11             	cmp    %ebx,(%ecx,%edx,1)
c01142b3:	c0 ce 24             	ror    $0x24,%dh
c01142b6:	11 c0                	adc    %eax,%eax
c01142b8:	3f                   	aas
c01142b9:	1c 11                	sbb    $0x11,%al
c01142bb:	c0 d9 24             	rcr    $0x24,%cl
c01142be:	11 c0                	adc    %eax,%eax
c01142c0:	43                   	inc    %ebx
c01142c1:	1c 11                	sbb    $0x11,%al
c01142c3:	c0 e4 24             	shl    $0x24,%ah
c01142c6:	11 c0                	adc    %eax,%eax
c01142c8:	49                   	dec    %ecx
c01142c9:	1c 11                	sbb    $0x11,%al
c01142cb:	c0 ef 24             	shr    $0x24,%bh
c01142ce:	11 c0                	adc    %eax,%eax
c01142d0:	4d                   	dec    %ebp
c01142d1:	1c 11                	sbb    $0x11,%al
c01142d3:	c0 fb 24             	sar    $0x24,%bl
c01142d6:	11 c0                	adc    %eax,%eax
c01142d8:	51                   	push   %ecx
c01142d9:	1c 11                	sbb    $0x11,%al
c01142db:	c0 07 25             	rolb   $0x25,(%edi)
c01142de:	11 c0                	adc    %eax,%eax
c01142e0:	55                   	push   %ebp
c01142e1:	1c 11                	sbb    $0x11,%al
c01142e3:	c0 13 25             	rclb   $0x25,(%ebx)
c01142e6:	11 c0                	adc    %eax,%eax
c01142e8:	59                   	pop    %ecx
c01142e9:	1c 11                	sbb    $0x11,%al
c01142eb:	c0 1f 25             	rcrb   $0x25,(%edi)
c01142ee:	11 c0                	adc    %eax,%eax
c01142f0:	5d                   	pop    %ebp
c01142f1:	1c 11                	sbb    $0x11,%al
c01142f3:	c0 2b 25             	shrb   $0x25,(%ebx)
c01142f6:	11 c0                	adc    %eax,%eax
c01142f8:	63 1c 11             	arpl   %bx,(%ecx,%edx,1)
c01142fb:	c0 37 25             	shlb   $0x25,(%edi)
c01142fe:	11 c0                	adc    %eax,%eax
c0114300:	6c                   	insb   (%dx),%es:(%edi)
c0114301:	1c 11                	sbb    $0x11,%al
c0114303:	c0 43 25 11          	rolb   $0x11,0x25(%ebx)
c0114307:	c0 73 1c 11          	shlb   $0x11,0x1c(%ebx)
c011430b:	c0 4f 25 11          	rorb   $0x11,0x25(%edi)
c011430f:	c0 7c 1c 11 c0       	sarb   $0xc0,0x11(%esp,%ebx,1)
c0114314:	5b                   	pop    %ebx
c0114315:	25 11 c0 85 1c       	and    $0x1c85c011,%eax
c011431a:	11 c0                	adc    %eax,%eax
c011431c:	67 25 11 c0 8e 1c    	addr16 and $0x1c8ec011,%eax
c0114322:	11 c0                	adc    %eax,%eax
c0114324:	73 25                	jae    c011434b <__symbol_tab+0x32b>
c0114326:	11 c0                	adc    %eax,%eax
c0114328:	97                   	xchg   %eax,%edi
c0114329:	1c 11                	sbb    $0x11,%al
c011432b:	c0 7f 25 11          	sarb   $0x11,0x25(%edi)
c011432f:	c0 a0 1c 11 c0 8b 25 	shlb   $0x25,-0x743feee4(%eax)
c0114336:	11 c0                	adc    %eax,%eax
c0114338:	a9 1c 11 c0 97       	test   $0x97c0111c,%eax
c011433d:	25 11 c0 b2 1c       	and    $0x1cb2c011,%eax
c0114342:	11 c0                	adc    %eax,%eax
c0114344:	a3 25 11 c0 bb       	mov    %eax,0xbbc01125
c0114349:	1c 11                	sbb    $0x11,%al
c011434b:	c0 af 25 11 c0 c4 1c 	shrb   $0x1c,-0x3b3feedb(%edi)
c0114352:	11 c0                	adc    %eax,%eax
c0114354:	bb 25 11 c0 cd       	mov    $0xcdc01125,%ebx
c0114359:	1c 11                	sbb    $0x11,%al
c011435b:	c0 c7 25             	rol    $0x25,%bh
c011435e:	11 c0                	adc    %eax,%eax
c0114360:	d6                   	(bad)
c0114361:	1c 11                	sbb    $0x11,%al
c0114363:	c0 d3 25             	rcl    $0x25,%bl
c0114366:	11 c0                	adc    %eax,%eax
c0114368:	df 1c 11             	fistps (%ecx,%edx,1)
c011436b:	c0 df 25             	rcr    $0x25,%bh
c011436e:	11 c0                	adc    %eax,%eax
c0114370:	e6 1c                	out    %al,$0x1c
c0114372:	11 c0                	adc    %eax,%eax
c0114374:	eb 25                	jmp    c011439b <__symbol_tab+0x37b>
c0114376:	11 c0                	adc    %eax,%eax
c0114378:	ef                   	out    %eax,(%dx)
c0114379:	1c 11                	sbb    $0x11,%al
c011437b:	c0 f7 25             	shl    $0x25,%bh
c011437e:	11 c0                	adc    %eax,%eax
c0114380:	00 20                	add    %ah,(%eax)
c0114382:	11 c0                	adc    %eax,%eax
c0114384:	06                   	push   %es
c0114385:	26 11 c0             	es adc %eax,%eax
c0114388:	04 20                	add    $0x20,%al
c011438a:	11 c0                	adc    %eax,%eax
c011438c:	1c 26                	sbb    $0x26,%al
c011438e:	11 c0                	adc    %eax,%eax
c0114390:	08 20                	or     %ah,(%eax)
c0114392:	11 c0                	adc    %eax,%eax
c0114394:	32 26                	xor    (%esi),%ah
c0114396:	11 c0                	adc    %eax,%eax
c0114398:	0c 20                	or     $0x20,%al
c011439a:	11 c0                	adc    %eax,%eax
c011439c:	48                   	dec    %eax
c011439d:	26 11 c0             	es adc %eax,%eax
c01143a0:	10 20                	adc    %ah,(%eax)
c01143a2:	11 c0                	adc    %eax,%eax
c01143a4:	5e                   	pop    %esi
c01143a5:	26 11 c0             	es adc %eax,%eax
c01143a8:	ff                   	(bad)
c01143a9:	ff                   	(bad)
c01143aa:	ff                   	(bad)
c01143ab:	ff 5a 28             	lcall  *0x28(%edx)
c01143ae:	11 c0                	adc    %eax,%eax
	...

c01143c0 <__exception_labels>:
c01143c0:	34 2c                	xor    $0x2c,%al
c01143c2:	11 c0                	adc    %eax,%eax
c01143c4:	69 28 11 c0 54 2c    	imul   $0x2c54c011,(%eax),%ebp
c01143ca:	11 c0                	adc    %eax,%eax
c01143cc:	80 28 11             	subb   $0x11,(%eax)
c01143cf:	c0 9c 28 11 c0 7c 2c 	rcrb   $0x11,0x2c7cc011(%eax,%ebp,1)
c01143d6:	11 
c01143d7:	c0 a4 2c 11 c0 cc 2c 	shlb   $0x11,0x2cccc011(%esp,%ebp,1)
c01143de:	11 
c01143df:	c0 b6 28 11 c0 f0 2c 	shlb   $0x2c,-0xf3feed8(%esi)
c01143e6:	11 c0                	adc    %eax,%eax
c01143e8:	ca 28 11             	lret   $0x1128
c01143eb:	c0 14 2d 11 c0 e7 28 	rclb   $0x11,0x28e7c011(,%ebp,1)
c01143f2:	11 
c01143f3:	c0 34 2d 11 c0 02 29 	shlb   $0x11,0x2902c011(,%ebp,1)
c01143fa:	11 
c01143fb:	c0 14 29 11          	rclb   $0x11,(%ecx,%ebp,1)
c01143ff:	c0 2e 29             	shrb   $0x29,(%esi)
c0114402:	11 c0                	adc    %eax,%eax
c0114404:	4c                   	dec    %esp
c0114405:	29 11                	sub    %edx,(%ecx)
c0114407:	c0 63 29 11          	shlb   $0x11,0x29(%ebx)
c011440b:	c0 54 2d 11 c0       	rclb   $0xc0,0x11(%ebp,%ebp,1)
c0114410:	78 29                	js     c011443b <__exception_labels+0x7b>
c0114412:	11 c0                	adc    %eax,%eax
c0114414:	74 2d                	je     c0114443 <__exception_labels+0x83>
c0114416:	11 c0                	adc    %eax,%eax
c0114418:	95                   	xchg   %eax,%ebp
c0114419:	29 11                	sub    %edx,(%ecx)
c011441b:	c0 af 29 11 c0 c9 29 	shrb   $0x29,-0x363feed7(%edi)
c0114422:	11 c0                	adc    %eax,%eax
c0114424:	e3 29                	jecxz  c011444f <__exception_labels+0x8f>
c0114426:	11 c0                	adc    %eax,%eax
c0114428:	fd                   	std
c0114429:	29 11                	sub    %edx,(%ecx)
c011442b:	c0 17 2a             	rclb   $0x2a,(%edi)
c011442e:	11 c0                	adc    %eax,%eax
c0114430:	98                   	cwtl
c0114431:	2d 11 c0 c0 2d       	sub    $0x2dc0c011,%eax
c0114436:	11 c0                	adc    %eax,%eax
c0114438:	31 2a                	xor    %ebp,(%edx)
c011443a:	11 c0                	adc    %eax,%eax
c011443c:	4b                   	dec    %ebx
c011443d:	2a 11                	sub    (%ecx),%dl
c011443f:	c0 00 00             	rolb   $0x0,(%eax)
c0114442:	10 00                	adc    %al,(%eax)
c0114444:	b1 21                	mov    $0x21,%cl
c0114446:	11 c0                	adc    %eax,%eax
c0114448:	00 00                	add    %al,(%eax)
c011444a:	10 c0                	adc    %al,%al
c011444c:	c3                   	ret
c011444d:	21 11                	and    %edx,(%ecx)
c011444f:	c0 20 00             	shlb   $0x0,(%eax)
c0114452:	10 c0                	adc    %al,%al
c0114454:	d5 21                	aad    $0x21
c0114456:	11 c0                	adc    %eax,%eax
c0114458:	20 00                	and    %al,(%eax)
c011445a:	11 c0                	adc    %eax,%eax
c011445c:	e2 21                	loop   c011447f <__exception_labels+0xbf>
c011445e:	11 c0                	adc    %eax,%eax
c0114460:	20 00                	and    %al,(%eax)
c0114462:	11 c0                	adc    %eax,%eax
c0114464:	f7 21                	mull   (%ecx)
c0114466:	11 c0                	adc    %eax,%eax
c0114468:	92                   	xchg   %eax,%edx
c0114469:	01 11                	add    %edx,(%ecx)
c011446b:	c0 bc 21 11 c0 a6 01 	sarb   $0x11,0x1a6c011(%ecx,%eiz,1)
c0114472:	11 
c0114473:	c0 01 22             	rolb   $0x22,(%ecx)
c0114476:	11 c0                	adc    %eax,%eax
c0114478:	c0 01 11             	rolb   $0x11,(%ecx)
c011447b:	c0 08 22             	rorb   $0x22,(%eax)
c011447e:	11 c0                	adc    %eax,%eax
c0114480:	c3                   	ret
c0114481:	01 11                	add    %edx,(%ecx)
c0114483:	c0 11 22             	rclb   $0x22,(%ecx)
c0114486:	11 c0                	adc    %eax,%eax
c0114488:	cb                   	lret
c0114489:	01 11                	add    %edx,(%ecx)
c011448b:	c0 1b 22             	rcrb   $0x22,(%ebx)
c011448e:	11 c0                	adc    %eax,%eax
c0114490:	d3 01                	roll   %cl,(%ecx)
c0114492:	11 c0                	adc    %eax,%eax
c0114494:	24 22                	and    $0x22,%al
c0114496:	11 c0                	adc    %eax,%eax
c0114498:	db 01                	fildl  (%ecx)
c011449a:	11 c0                	adc    %eax,%eax
c011449c:	2d 22 11 c0 db       	sub    $0xdbc01122,%eax
c01144a1:	01 11                	add    %edx,(%ecx)
c01144a3:	c0 3c 22 11          	sarb   $0x11,(%edx,%eiz,1)
c01144a7:	c0 f0 01             	shl    $0x1,%al
c01144aa:	11 c0                	adc    %eax,%eax
c01144ac:	44                   	inc    %esp
c01144ad:	22 11                	and    (%ecx),%dl
c01144af:	c0 b0 02 11 c0 4b 22 	shlb   $0x22,0x4bc01102(%eax)
c01144b6:	11 c0                	adc    %eax,%eax
c01144b8:	14 03                	adc    $0x3,%al
c01144ba:	11 c0                	adc    %eax,%eax
c01144bc:	54                   	push   %esp
c01144bd:	22 11                	and    (%ecx),%dl
c01144bf:	c0 28 03             	shrb   $0x3,(%eax)
c01144c2:	11 c0                	adc    %eax,%eax
c01144c4:	59                   	pop    %ecx
c01144c5:	22 11                	and    (%ecx),%dl
c01144c7:	c0 b0 03 11 c0 5e 22 	shlb   $0x22,0x5ec01103(%eax)
c01144ce:	11 c0                	adc    %eax,%eax
c01144d0:	20 04 11             	and    %al,(%ecx,%edx,1)
c01144d3:	c0 63 22 11          	shlb   $0x11,0x22(%ebx)
c01144d7:	c0 f0 04             	shl    $0x4,%al
c01144da:	11 c0                	adc    %eax,%eax
c01144dc:	68 22 11 c0 80       	push   $0x80c01122
c01144e1:	05 11 c0 6d 22       	add    $0x226dc011,%eax
c01144e6:	11 c0                	adc    %eax,%eax
c01144e8:	cf                   	iret
c01144e9:	05 11 c0 72 22       	add    $0x2272c011,%eax
c01144ee:	11 c0                	adc    %eax,%eax
c01144f0:	60                   	pusha
c01144f1:	06                   	push   %es
c01144f2:	11 c0                	adc    %eax,%eax
c01144f4:	77 22                	ja     c0114518 <__exception_labels+0x158>
c01144f6:	11 c0                	adc    %eax,%eax
c01144f8:	c0 06 11             	rolb   $0x11,(%esi)
c01144fb:	c0 7e 22 11          	sarb   $0x11,0x22(%esi)
c01144ff:	c0 70 07 11          	shlb   $0x11,0x7(%eax)
c0114503:	c0 85 22 11 c0 80 07 	rolb   $0x7,-0x7f3feede(%ebp)
c011450a:	11 c0                	adc    %eax,%eax
c011450c:	98                   	cwtl
c011450d:	22 11                	and    (%ecx),%dl
c011450f:	c0 50 08 11          	rclb   $0x11,0x8(%eax)
c0114513:	c0 a2 22 11 c0 e0 08 	shlb   $0x8,-0x1f3feede(%edx)
c011451a:	11 c0                	adc    %eax,%eax
c011451c:	ae                   	scas   %es:(%edi),%al
c011451d:	22 11                	and    (%ecx),%dl
c011451f:	c0 40 09 11          	rolb   $0x11,0x9(%eax)
c0114523:	c0 b7 22 11 c0 90 09 	shlb   $0x9,-0x6f3feede(%edi)
c011452a:	11 c0                	adc    %eax,%eax
c011452c:	c2 22 11             	ret    $0x1122
c011452f:	c0 e0 09             	shl    $0x9,%al
c0114532:	11 c0                	adc    %eax,%eax
c0114534:	cf                   	iret
c0114535:	22 11                	and    (%ecx),%dl
c0114537:	c0 f0 09             	shl    $0x9,%al
c011453a:	11 c0                	adc    %eax,%eax
c011453c:	df 22                	fbld   (%edx)
c011453e:	11 c0                	adc    %eax,%eax
c0114540:	00 0a                	add    %cl,(%edx)
c0114542:	11 c0                	adc    %eax,%eax
c0114544:	f1                   	int1
c0114545:	22 11                	and    (%ecx),%dl
c0114547:	c0 10 0a             	rclb   $0xa,(%eax)
c011454a:	11 c0                	adc    %eax,%eax
c011454c:	03 23                	add    (%ebx),%esp
c011454e:	11 c0                	adc    %eax,%eax
c0114550:	20 0a                	and    %cl,(%edx)
c0114552:	11 c0                	adc    %eax,%eax
c0114554:	14 23                	adc    $0x23,%al
c0114556:	11 c0                	adc    %eax,%eax
c0114558:	30 0a                	xor    %cl,(%edx)
c011455a:	11 c0                	adc    %eax,%eax
c011455c:	25 23 11 c0 40       	and    $0x40c01123,%eax
c0114561:	0a 11                	or     (%ecx),%dl
c0114563:	c0 36 23             	shlb   $0x23,(%esi)
c0114566:	11 c0                	adc    %eax,%eax
c0114568:	50                   	push   %eax
c0114569:	0a 11                	or     (%ecx),%dl
c011456b:	c0 46 23 11          	rolb   $0x11,0x23(%esi)
c011456f:	c0 40 0b 11          	rolb   $0x11,0xb(%eax)
c0114573:	c0 50 23 11          	rclb   $0x11,0x23(%eax)
c0114577:	c0 e0 0b             	shl    $0xb,%al
c011457a:	11 c0                	adc    %eax,%eax
c011457c:	5a                   	pop    %edx
c011457d:	23 11                	and    (%ecx),%edx
c011457f:	c0 90 0c 11 c0 64 23 	rclb   $0x23,0x64c0110c(%eax)
c0114586:	11 c0                	adc    %eax,%eax
c0114588:	f0 0c 11             	lock or $0x11,%al
c011458b:	c0 6f 23 11          	shrb   $0x11,0x23(%edi)
c011458f:	c0 a0 0d 11 c0 76 23 	shlb   $0x23,0x76c0110d(%eax)
c0114596:	11 c0                	adc    %eax,%eax
c0114598:	c0 0d 11 c0 7e 23 11 	rorb   $0x11,0x237ec011
c011459f:	c0 20 0e             	shlb   $0xe,(%eax)
c01145a2:	11 c0                	adc    %eax,%eax
c01145a4:	8d 23                	lea    (%ebx),%esp
c01145a6:	11 c0                	adc    %eax,%eax
c01145a8:	90                   	nop
c01145a9:	0e                   	push   %cs
c01145aa:	11 c0                	adc    %eax,%eax
c01145ac:	94                   	xchg   %eax,%esp
c01145ad:	23 11                	and    (%ecx),%edx
c01145af:	c0 10 0f             	rclb   $0xf,(%eax)
c01145b2:	11 c0                	adc    %eax,%eax
c01145b4:	9c                   	pushf
c01145b5:	23 11                	and    (%ecx),%edx
c01145b7:	c0 c0 0f             	rol    $0xf,%al
c01145ba:	11 c0                	adc    %eax,%eax
c01145bc:	a3 23 11 c0 f0       	mov    %eax,0xf0c01123
c01145c1:	0f 11 c0             	movups %xmm0,%xmm0
c01145c4:	aa                   	stos   %al,%es:(%edi)
c01145c5:	23 11                	and    (%ecx),%edx
c01145c7:	c0 90 10 11 c0 b1 23 	rclb   $0x23,-0x4e3feef0(%eax)
c01145ce:	11 c0                	adc    %eax,%eax
c01145d0:	10 11                	adc    %dl,(%ecx)
c01145d2:	11 c0                	adc    %eax,%eax
c01145d4:	b8 23 11 c0 7c       	mov    $0x7cc01123,%eax
c01145d9:	11 11                	adc    %edx,(%ecx)
c01145db:	c0 c1 23             	rol    $0x23,%cl
c01145de:	11 c0                	adc    %eax,%eax
c01145e0:	98                   	cwtl
c01145e1:	11 11                	adc    %edx,(%ecx)
c01145e3:	c0 c6 23             	rol    $0x23,%dh
c01145e6:	11 c0                	adc    %eax,%eax
c01145e8:	c7                   	(bad)
c01145e9:	11 11                	adc    %edx,(%ecx)
c01145eb:	c0 cb 23             	ror    $0x23,%bl
c01145ee:	11 c0                	adc    %eax,%eax
c01145f0:	f0 11 11             	lock adc %edx,(%ecx)
c01145f3:	c0 d1 23             	rcl    $0x23,%cl
c01145f6:	11 c0                	adc    %eax,%eax
c01145f8:	20 12                	and    %dl,(%edx)
c01145fa:	11 c0                	adc    %eax,%eax
c01145fc:	d6                   	(bad)
c01145fd:	23 11                	and    (%ecx),%edx
c01145ff:	c0 d8 12             	rcr    $0x12,%al
c0114602:	11 c0                	adc    %eax,%eax
c0114604:	db 23                	(bad)  (%ebx)
c0114606:	11 c0                	adc    %eax,%eax
c0114608:	40                   	inc    %eax
c0114609:	13 11                	adc    (%ecx),%edx
c011460b:	c0 e0 23             	shl    $0x23,%al
c011460e:	11 c0                	adc    %eax,%eax
c0114610:	80 13 11             	adcb   $0x11,(%ebx)
c0114613:	c0 e5 23             	shl    $0x23,%ch
c0114616:	11 c0                	adc    %eax,%eax
c0114618:	b0 13                	mov    $0x13,%al
c011461a:	11 c0                	adc    %eax,%eax
c011461c:	ec                   	in     (%dx),%al
c011461d:	23 11                	and    (%ecx),%edx
c011461f:	c0 f0 13             	shl    $0x13,%al
c0114622:	11 c0                	adc    %eax,%eax
c0114624:	f8                   	clc
c0114625:	23 11                	and    (%ecx),%edx
c0114627:	c0 90 14 11 c0 fd 23 	rclb   $0x23,-0x23feeec(%eax)
c011462e:	11 c0                	adc    %eax,%eax
c0114630:	f0 14 11             	lock adc $0x11,%al
c0114633:	c0 02 24             	rolb   $0x24,(%edx)
c0114636:	11 c0                	adc    %eax,%eax
c0114638:	40                   	inc    %eax
c0114639:	15 11 c0 08 24       	adc    $0x2408c011,%eax
c011463e:	11 c0                	adc    %eax,%eax
c0114640:	50                   	push   %eax
c0114641:	15 11 c0 0c 24       	adc    $0x240cc011,%eax
c0114646:	11 c0                	adc    %eax,%eax
c0114648:	60                   	pusha
c0114649:	15 11 c0 11 24       	adc    $0x2411c011,%eax
c011464e:	11 c0                	adc    %eax,%eax
c0114650:	90                   	nop
c0114651:	15 11 c0 1d 24       	adc    $0x241dc011,%eax
c0114656:	11 c0                	adc    %eax,%eax
c0114658:	c0 15 11 c0 23 24 11 	rclb   $0x11,0x2423c011
c011465f:	c0 30 16             	shlb   $0x16,(%eax)
c0114662:	11 c0                	adc    %eax,%eax
c0114664:	2c 24                	sub    $0x24,%al
c0114666:	11 c0                	adc    %eax,%eax
c0114668:	6e                   	outsb  %ds:(%esi),(%dx)
c0114669:	16                   	push   %ss
c011466a:	11 c0                	adc    %eax,%eax
c011466c:	39 24 11             	cmp    %esp,(%ecx,%edx,1)
c011466f:	c0 8b 16 11 c0 42 24 	rorb   $0x24,0x42c01116(%ebx)
c0114676:	11 c0                	adc    %eax,%eax
c0114678:	8c 16                	mov    %ss,(%esi)
c011467a:	11 c0                	adc    %eax,%eax
c011467c:	4b                   	dec    %ebx
c011467d:	24 11                	and    $0x11,%al
c011467f:	c0 a0 16 11 c0 56 24 	shlb   $0x24,0x56c01116(%eax)
c0114686:	11 c0                	adc    %eax,%eax
c0114688:	70 1b                	jo     c01146a5 <__exception_labels+0x2e5>
c011468a:	11 c0                	adc    %eax,%eax
c011468c:	68 24 11 c0 e4       	push   $0xe4c01124
c0114691:	1b 11                	sbb    (%ecx),%edx
c0114693:	c0 71 24 11          	shlb   $0x11,0x24(%ecx)
c0114697:	c0 0f 1c             	rorb   $0x1c,(%edi)
c011469a:	11 c0                	adc    %eax,%eax
c011469c:	81 24 11 c0 15 1c 11 	andl   $0x111c15c0,(%ecx,%edx,1)
c01146a3:	c0 8c 24 11 c0 1b 1c 	rorb   $0x11,0x1c1bc011(%esp)
c01146aa:	11 
c01146ab:	c0 97 24 11 c0 21 1c 	rclb   $0x1c,0x21c01124(%edi)
c01146b2:	11 c0                	adc    %eax,%eax
c01146b4:	a2 24 11 c0 27       	mov    %al,0x27c01124
c01146b9:	1c 11                	sbb    $0x11,%al
c01146bb:	c0 ad 24 11 c0 2d 1c 	shrb   $0x1c,0x2dc01124(%ebp)
c01146c2:	11 c0                	adc    %eax,%eax
c01146c4:	b8 24 11 c0 33       	mov    $0x33c01124,%eax
c01146c9:	1c 11                	sbb    $0x11,%al
c01146cb:	c0 c3 24             	rol    $0x24,%bl
c01146ce:	11 c0                	adc    %eax,%eax
c01146d0:	39 1c 11             	cmp    %ebx,(%ecx,%edx,1)
c01146d3:	c0 ce 24             	ror    $0x24,%dh
c01146d6:	11 c0                	adc    %eax,%eax
c01146d8:	3f                   	aas
c01146d9:	1c 11                	sbb    $0x11,%al
c01146db:	c0 d9 24             	rcr    $0x24,%cl
c01146de:	11 c0                	adc    %eax,%eax
c01146e0:	43                   	inc    %ebx
c01146e1:	1c 11                	sbb    $0x11,%al
c01146e3:	c0 e4 24             	shl    $0x24,%ah
c01146e6:	11 c0                	adc    %eax,%eax
c01146e8:	49                   	dec    %ecx
c01146e9:	1c 11                	sbb    $0x11,%al
c01146eb:	c0 ef 24             	shr    $0x24,%bh
c01146ee:	11 c0                	adc    %eax,%eax
c01146f0:	4d                   	dec    %ebp
c01146f1:	1c 11                	sbb    $0x11,%al
c01146f3:	c0 fb 24             	sar    $0x24,%bl
c01146f6:	11 c0                	adc    %eax,%eax
c01146f8:	51                   	push   %ecx
c01146f9:	1c 11                	sbb    $0x11,%al
c01146fb:	c0 07 25             	rolb   $0x25,(%edi)
c01146fe:	11 c0                	adc    %eax,%eax
c0114700:	55                   	push   %ebp
c0114701:	1c 11                	sbb    $0x11,%al
c0114703:	c0 13 25             	rclb   $0x25,(%ebx)
c0114706:	11 c0                	adc    %eax,%eax
c0114708:	59                   	pop    %ecx
c0114709:	1c 11                	sbb    $0x11,%al
c011470b:	c0 1f 25             	rcrb   $0x25,(%edi)
c011470e:	11 c0                	adc    %eax,%eax
c0114710:	5d                   	pop    %ebp
c0114711:	1c 11                	sbb    $0x11,%al
c0114713:	c0 2b 25             	shrb   $0x25,(%ebx)
c0114716:	11 c0                	adc    %eax,%eax
c0114718:	63 1c 11             	arpl   %bx,(%ecx,%edx,1)
c011471b:	c0 37 25             	shlb   $0x25,(%edi)
c011471e:	11 c0                	adc    %eax,%eax
c0114720:	6c                   	insb   (%dx),%es:(%edi)
c0114721:	1c 11                	sbb    $0x11,%al
c0114723:	c0 43 25 11          	rolb   $0x11,0x25(%ebx)
c0114727:	c0 73 1c 11          	shlb   $0x11,0x1c(%ebx)
c011472b:	c0 4f 25 11          	rorb   $0x11,0x25(%edi)
c011472f:	c0 7c 1c 11 c0       	sarb   $0xc0,0x11(%esp,%ebx,1)
c0114734:	5b                   	pop    %ebx
c0114735:	25 11 c0 85 1c       	and    $0x1c85c011,%eax
c011473a:	11 c0                	adc    %eax,%eax
c011473c:	67 25 11 c0 8e 1c    	addr16 and $0x1c8ec011,%eax
c0114742:	11 c0                	adc    %eax,%eax
c0114744:	73 25                	jae    c011476b <__exception_labels+0x3ab>
c0114746:	11 c0                	adc    %eax,%eax
c0114748:	97                   	xchg   %eax,%edi
c0114749:	1c 11                	sbb    $0x11,%al
c011474b:	c0 7f 25 11          	sarb   $0x11,0x25(%edi)
c011474f:	c0 a0 1c 11 c0 8b 25 	shlb   $0x25,-0x743feee4(%eax)
c0114756:	11 c0                	adc    %eax,%eax
c0114758:	a9 1c 11 c0 97       	test   $0x97c0111c,%eax
c011475d:	25 11 c0 b2 1c       	and    $0x1cb2c011,%eax
c0114762:	11 c0                	adc    %eax,%eax
c0114764:	a3 25 11 c0 bb       	mov    %eax,0xbbc01125
c0114769:	1c 11                	sbb    $0x11,%al
c011476b:	c0 af 25 11 c0 c4 1c 	shrb   $0x1c,-0x3b3feedb(%edi)
c0114772:	11 c0                	adc    %eax,%eax
c0114774:	bb 25 11 c0 cd       	mov    $0xcdc01125,%ebx
c0114779:	1c 11                	sbb    $0x11,%al
c011477b:	c0 c7 25             	rol    $0x25,%bh
c011477e:	11 c0                	adc    %eax,%eax
c0114780:	d6                   	(bad)
c0114781:	1c 11                	sbb    $0x11,%al
c0114783:	c0 d3 25             	rcl    $0x25,%bl
c0114786:	11 c0                	adc    %eax,%eax
c0114788:	df 1c 11             	fistps (%ecx,%edx,1)
c011478b:	c0 df 25             	rcr    $0x25,%bh
c011478e:	11 c0                	adc    %eax,%eax
c0114790:	e6 1c                	out    %al,$0x1c
c0114792:	11 c0                	adc    %eax,%eax
c0114794:	eb 25                	jmp    c01147bb <__exception_labels+0x3fb>
c0114796:	11 c0                	adc    %eax,%eax
c0114798:	ef                   	out    %eax,(%dx)
c0114799:	1c 11                	sbb    $0x11,%al
c011479b:	c0 f7 25             	shl    $0x25,%bh
c011479e:	11 c0                	adc    %eax,%eax
c01147a0:	00 20                	add    %ah,(%eax)
c01147a2:	11 c0                	adc    %eax,%eax
c01147a4:	06                   	push   %es
c01147a5:	26 11 c0             	es adc %eax,%eax
c01147a8:	04 20                	add    $0x20,%al
c01147aa:	11 c0                	adc    %eax,%eax
c01147ac:	1c 26                	sbb    $0x26,%al
c01147ae:	11 c0                	adc    %eax,%eax
c01147b0:	08 20                	or     %ah,(%eax)
c01147b2:	11 c0                	adc    %eax,%eax
c01147b4:	32 26                	xor    (%esi),%ah
c01147b6:	11 c0                	adc    %eax,%eax
c01147b8:	0c 20                	or     $0x20,%al
c01147ba:	11 c0                	adc    %eax,%eax
c01147bc:	48                   	dec    %eax
c01147bd:	26 11 c0             	es adc %eax,%eax
c01147c0:	10 20                	adc    %ah,(%eax)
c01147c2:	11 c0                	adc    %eax,%eax
c01147c4:	5e                   	pop    %esi
c01147c5:	26 11 c0             	es adc %eax,%eax
c01147c8:	ff                   	(bad)
c01147c9:	ff                   	(bad)
c01147ca:	ff                   	(bad)
c01147cb:	ff 5a 28             	lcall  *0x28(%edx)
c01147ce:	11 c0                	adc    %eax,%eax

Disassembly of section .comment:

00000000 <.comment>:
   0:	47                   	inc    %edi
   1:	43                   	inc    %ebx
   2:	43                   	inc    %ebx
   3:	3a 20                	cmp    (%eax),%ah
   5:	28 55 62             	sub    %dl,0x62(%ebp)
   8:	75 6e                	jne    78 <i+0x58>
   a:	74 75                	je     81 <i+0x61>
   c:	20 31                	and    %dh,(%ecx)
   e:	33 2e                	xor    (%esi),%ebp
  10:	32 2e                	xor    (%esi),%ch
  12:	30 2d 34 75 62 75    	xor    %ch,0x75627534
  18:	6e                   	outsb  %ds:(%esi),(%dx)
  19:	74 75                	je     90 <i+0x70>
  1b:	33 29                	xor    (%ecx),%ebp
  1d:	20 31                	and    %dh,(%ecx)
  1f:	33 2e                	xor    (%esi),%ebp
  21:	32 2e                	xor    (%esi),%ch
  23:	30 00                	xor    %al,(%eax)
